ARM GAS  /var/folders/5f/72p4brfx5932kssh4q_5ly0m0000gn/T//cc7WxlGd.s 			page 1


   1              		.cpu cortex-m7
   2              		.arch armv7e-m
   3              		.fpu fpv5-d16
   4              		.eabi_attribute 28, 1
   5              		.eabi_attribute 20, 1
   6              		.eabi_attribute 21, 1
   7              		.eabi_attribute 23, 3
   8              		.eabi_attribute 24, 1
   9              		.eabi_attribute 25, 1
  10              		.eabi_attribute 26, 1
  11              		.eabi_attribute 30, 2
  12              		.eabi_attribute 34, 1
  13              		.eabi_attribute 18, 4
  14              		.file	"Application.cpp"
  15              		.text
  16              	.Ltext0:
  17              		.cfi_sections	.debug_frame
  18              		.section	.text._ZN5daisy8DaisyPodD2Ev,"axG",%progbits,_ZN5daisy8DaisyPodD5Ev,comdat
  19              		.align	1
  20              		.p2align 2,,3
  21              		.weak	_ZN5daisy8DaisyPodD2Ev
  22              		.syntax unified
  23              		.thumb
  24              		.thumb_func
  26              	_ZN5daisy8DaisyPodD2Ev:
  27              	.LVL0:
  28              	.LFB2565:
  29              		.file 1 "../../libDaisy//src/daisy_pod.h"
   1:../../libDaisy//src/daisy_pod.h **** #pragma once
   2:../../libDaisy//src/daisy_pod.h **** #ifndef DSY_POD_BSP_H
   3:../../libDaisy//src/daisy_pod.h **** #define DSY_POD_BSP_H
   4:../../libDaisy//src/daisy_pod.h **** 
   5:../../libDaisy//src/daisy_pod.h **** #include "daisy_seed.h"
   6:../../libDaisy//src/daisy_pod.h **** 
   7:../../libDaisy//src/daisy_pod.h **** namespace daisy
   8:../../libDaisy//src/daisy_pod.h **** {
   9:../../libDaisy//src/daisy_pod.h **** /**
  10:../../libDaisy//src/daisy_pod.h ****     @brief Class that handles initializing all of the hardware specific to the Daisy Patch Board. \
  11:../../libDaisy//src/daisy_pod.h ****     Helper funtions are also in place to provide easy access to built-in controls and peripherals.
  12:../../libDaisy//src/daisy_pod.h ****     @author Stephen Hensley
  13:../../libDaisy//src/daisy_pod.h ****     @date November 2019
  14:../../libDaisy//src/daisy_pod.h ****     @ingroup boards
  15:../../libDaisy//src/daisy_pod.h **** */
  16:../../libDaisy//src/daisy_pod.h **** class DaisyPod
  17:../../libDaisy//src/daisy_pod.h **** {
  18:../../libDaisy//src/daisy_pod.h ****   public:
  19:../../libDaisy//src/daisy_pod.h ****     /** Switches */
  20:../../libDaisy//src/daisy_pod.h ****     enum Sw
  21:../../libDaisy//src/daisy_pod.h ****     {
  22:../../libDaisy//src/daisy_pod.h ****         BUTTON_1,    /** & */
  23:../../libDaisy//src/daisy_pod.h ****         BUTTON_2,    /** & */
  24:../../libDaisy//src/daisy_pod.h ****         BUTTON_LAST, /** &  */
  25:../../libDaisy//src/daisy_pod.h ****     };
  26:../../libDaisy//src/daisy_pod.h **** 
  27:../../libDaisy//src/daisy_pod.h ****     /** Knobs */
  28:../../libDaisy//src/daisy_pod.h ****     enum Knob
  29:../../libDaisy//src/daisy_pod.h ****     {
ARM GAS  /var/folders/5f/72p4brfx5932kssh4q_5ly0m0000gn/T//cc7WxlGd.s 			page 2


  30:../../libDaisy//src/daisy_pod.h ****         KNOB_1,    /** &  */
  31:../../libDaisy//src/daisy_pod.h ****         KNOB_2,    /** & */
  32:../../libDaisy//src/daisy_pod.h ****         KNOB_LAST, /** & */
  33:../../libDaisy//src/daisy_pod.h ****     };
  34:../../libDaisy//src/daisy_pod.h **** 
  35:../../libDaisy//src/daisy_pod.h ****     DaisyPod() {}
  36:../../libDaisy//src/daisy_pod.h ****     ~DaisyPod() {}
  30              		.loc 1 36 5 view -0
  31              		.cfi_startproc
  32              		@ args = 0, pretend = 0, frame = 0
  33              		@ frame_needed = 0, uses_anonymous_args = 0
  34              		@ link register save eliminated.
  35              	.LBB407:
  36              	.LBI407:
  37              		.file 2 "../../libDaisy//src/hid/midi.h"
   1:../../libDaisy//src/hid/midi.h **** #pragma once
   2:../../libDaisy//src/hid/midi.h **** #ifndef DSY_MIDI_H
   3:../../libDaisy//src/hid/midi.h **** #define DSY_MIDI_H
   4:../../libDaisy//src/hid/midi.h **** 
   5:../../libDaisy//src/hid/midi.h **** #include <stdint.h>
   6:../../libDaisy//src/hid/midi.h **** #include <stdlib.h>
   7:../../libDaisy//src/hid/midi.h **** #include <algorithm>
   8:../../libDaisy//src/hid/midi.h **** #include "per/uart.h"
   9:../../libDaisy//src/hid/midi.h **** #include "util/ringbuffer.h"
  10:../../libDaisy//src/hid/midi.h **** #include "util/FIFO.h"
  11:../../libDaisy//src/hid/midi.h **** #include "hid/midi_parser.h"
  12:../../libDaisy//src/hid/midi.h **** #include "hid/usb_midi.h"
  13:../../libDaisy//src/hid/midi.h **** #include "sys/dma.h"
  14:../../libDaisy//src/hid/midi.h **** #include "sys/system.h"
  15:../../libDaisy//src/hid/midi.h **** 
  16:../../libDaisy//src/hid/midi.h **** namespace daisy
  17:../../libDaisy//src/hid/midi.h **** {
  18:../../libDaisy//src/hid/midi.h **** /** @brief   Transport layer for sending and receiving MIDI data over UART
  19:../../libDaisy//src/hid/midi.h ****  *  @details This is the mode of communication used for TRS and DIN MIDI
  20:../../libDaisy//src/hid/midi.h ****  *           There is an additional 2kB of RAM data used within this class
  21:../../libDaisy//src/hid/midi.h ****  *           for processing bulk data from the UART peripheral
  22:../../libDaisy//src/hid/midi.h ****  *  @ingroup midi
  23:../../libDaisy//src/hid/midi.h **** */
  24:../../libDaisy//src/hid/midi.h **** class MidiUartTransport
  25:../../libDaisy//src/hid/midi.h **** {
  26:../../libDaisy//src/hid/midi.h ****   public:
  27:../../libDaisy//src/hid/midi.h ****     typedef void (*MidiRxParseCallback)(uint8_t* data,
  28:../../libDaisy//src/hid/midi.h ****                                         size_t   size,
  29:../../libDaisy//src/hid/midi.h ****                                         void*    context);
  30:../../libDaisy//src/hid/midi.h **** 
  31:../../libDaisy//src/hid/midi.h ****     MidiUartTransport() {}
  32:../../libDaisy//src/hid/midi.h ****     ~MidiUartTransport() {}
  33:../../libDaisy//src/hid/midi.h **** 
  34:../../libDaisy//src/hid/midi.h ****     /** @brief Configuration structure for UART MIDI */
  35:../../libDaisy//src/hid/midi.h ****     struct Config
  36:../../libDaisy//src/hid/midi.h ****     {
  37:../../libDaisy//src/hid/midi.h ****         UartHandler::Config::Peripheral periph;
  38:../../libDaisy//src/hid/midi.h ****         dsy_gpio_pin                    rx;
  39:../../libDaisy//src/hid/midi.h ****         dsy_gpio_pin                    tx;
  40:../../libDaisy//src/hid/midi.h **** 
  41:../../libDaisy//src/hid/midi.h ****         /** Pointer to buffer for DMA UART rx byte transfer in background.
  42:../../libDaisy//src/hid/midi.h ****          *
ARM GAS  /var/folders/5f/72p4brfx5932kssh4q_5ly0m0000gn/T//cc7WxlGd.s 			page 3


  43:../../libDaisy//src/hid/midi.h ****          *  @details By default this uses a shared buffer in DMA_BUFFER_MEM_SECTION,
  44:../../libDaisy//src/hid/midi.h ****          *           which can only be utilized for a single UART peripheral. To
  45:../../libDaisy//src/hid/midi.h ****          *           use MIDI with multiple UART peripherals, you must provide your own
  46:../../libDaisy//src/hid/midi.h ****          *           buffer, allocated to a DMA-capable memory section.
  47:../../libDaisy//src/hid/midi.h ****          */
  48:../../libDaisy//src/hid/midi.h ****         uint8_t* rx_buffer;
  49:../../libDaisy//src/hid/midi.h **** 
  50:../../libDaisy//src/hid/midi.h ****         /** Size in bytes of rx_buffer.
  51:../../libDaisy//src/hid/midi.h ****          *
  52:../../libDaisy//src/hid/midi.h ****          *  @details This size determines the maximum Rx bytes readable by the UART in the backgrou
  53:../../libDaisy//src/hid/midi.h ****          *           By default it's set to the size of the default shared rx_buffer (256 bytes).
  54:../../libDaisy//src/hid/midi.h ****          *           While much smaller sizes can be used, data can get missed if the buffer is too
  55:../../libDaisy//src/hid/midi.h ****          */
  56:../../libDaisy//src/hid/midi.h ****         size_t rx_buffer_size;
  57:../../libDaisy//src/hid/midi.h **** 
  58:../../libDaisy//src/hid/midi.h ****         Config();
  59:../../libDaisy//src/hid/midi.h ****     };
  60:../../libDaisy//src/hid/midi.h **** 
  61:../../libDaisy//src/hid/midi.h ****     /** @brief Initialization of UART using config struct */
  62:../../libDaisy//src/hid/midi.h ****     inline void Init(Config config)
  63:../../libDaisy//src/hid/midi.h ****     {
  64:../../libDaisy//src/hid/midi.h ****         UartHandler::Config uart_config;
  65:../../libDaisy//src/hid/midi.h **** 
  66:../../libDaisy//src/hid/midi.h ****         //defaults
  67:../../libDaisy//src/hid/midi.h ****         uart_config.baudrate   = 31250;
  68:../../libDaisy//src/hid/midi.h ****         uart_config.stopbits   = UartHandler::Config::StopBits::BITS_1;
  69:../../libDaisy//src/hid/midi.h ****         uart_config.parity     = UartHandler::Config::Parity::NONE;
  70:../../libDaisy//src/hid/midi.h ****         uart_config.mode       = UartHandler::Config::Mode::TX_RX;
  71:../../libDaisy//src/hid/midi.h ****         uart_config.wordlength = UartHandler::Config::WordLength::BITS_8;
  72:../../libDaisy//src/hid/midi.h **** 
  73:../../libDaisy//src/hid/midi.h ****         //user settings
  74:../../libDaisy//src/hid/midi.h ****         uart_config.periph        = config.periph;
  75:../../libDaisy//src/hid/midi.h ****         uart_config.pin_config.rx = config.rx;
  76:../../libDaisy//src/hid/midi.h ****         uart_config.pin_config.tx = config.tx;
  77:../../libDaisy//src/hid/midi.h **** 
  78:../../libDaisy//src/hid/midi.h ****         rx_buffer      = config.rx_buffer;
  79:../../libDaisy//src/hid/midi.h ****         rx_buffer_size = config.rx_buffer_size;
  80:../../libDaisy//src/hid/midi.h **** 
  81:../../libDaisy//src/hid/midi.h ****         /** zero the buffer to ensure emptiness regardless of source memory */
  82:../../libDaisy//src/hid/midi.h ****         std::fill(rx_buffer, rx_buffer + rx_buffer_size, 0);
  83:../../libDaisy//src/hid/midi.h **** 
  84:../../libDaisy//src/hid/midi.h ****         uart_.Init(uart_config);
  85:../../libDaisy//src/hid/midi.h ****     }
  86:../../libDaisy//src/hid/midi.h **** 
  87:../../libDaisy//src/hid/midi.h ****     /** @brief Start the UART peripheral in listening mode.
  88:../../libDaisy//src/hid/midi.h ****      *  This will fill an internal data structure in the background */
  89:../../libDaisy//src/hid/midi.h ****     inline void StartRx(MidiRxParseCallback parse_callback, void* context)
  90:../../libDaisy//src/hid/midi.h ****     {
  91:../../libDaisy//src/hid/midi.h ****         parse_context_  = context;
  92:../../libDaisy//src/hid/midi.h ****         parse_callback_ = parse_callback;
  93:../../libDaisy//src/hid/midi.h ****         dsy_dma_clear_cache_for_buffer((uint8_t*)this,
  94:../../libDaisy//src/hid/midi.h ****                                        sizeof(MidiUartTransport));
  95:../../libDaisy//src/hid/midi.h ****         uart_.DmaListenStart(
  96:../../libDaisy//src/hid/midi.h ****             rx_buffer, rx_buffer_size, MidiUartTransport::rxCallback, this);
  97:../../libDaisy//src/hid/midi.h ****     }
  98:../../libDaisy//src/hid/midi.h **** 
  99:../../libDaisy//src/hid/midi.h ****     /** @brief returns whether the UART peripheral is actively listening in the background or not *
ARM GAS  /var/folders/5f/72p4brfx5932kssh4q_5ly0m0000gn/T//cc7WxlGd.s 			page 4


 100:../../libDaisy//src/hid/midi.h ****     inline bool RxActive() { return uart_.IsListening(); }
 101:../../libDaisy//src/hid/midi.h **** 
 102:../../libDaisy//src/hid/midi.h ****     /** @brief This is a no-op for UART transport - Rx is via DMA callback with circular buffer */
 103:../../libDaisy//src/hid/midi.h ****     inline void FlushRx() {}
 104:../../libDaisy//src/hid/midi.h **** 
 105:../../libDaisy//src/hid/midi.h ****     /** @brief sends the buffer of bytes out of the UART peripheral */
 106:../../libDaisy//src/hid/midi.h ****     inline void Tx(uint8_t* buff, size_t size) { uart_.PollTx(buff, size); }
 107:../../libDaisy//src/hid/midi.h **** 
 108:../../libDaisy//src/hid/midi.h ****   private:
 109:../../libDaisy//src/hid/midi.h ****     UartHandler         uart_;
 110:../../libDaisy//src/hid/midi.h ****     uint8_t*            rx_buffer;
 111:../../libDaisy//src/hid/midi.h ****     size_t              rx_buffer_size;
 112:../../libDaisy//src/hid/midi.h ****     void*               parse_context_;
 113:../../libDaisy//src/hid/midi.h ****     MidiRxParseCallback parse_callback_;
 114:../../libDaisy//src/hid/midi.h **** 
 115:../../libDaisy//src/hid/midi.h ****     /** Static callback for Uart MIDI that occurs when
 116:../../libDaisy//src/hid/midi.h ****          *  new data is available from the peripheral.
 117:../../libDaisy//src/hid/midi.h ****          *  The new data is transferred from the peripheral to the
 118:../../libDaisy//src/hid/midi.h ****          *  MIDI instance's byte FIFO that feeds the MIDI parser.
 119:../../libDaisy//src/hid/midi.h ****          *
 120:../../libDaisy//src/hid/midi.h ****          *  TODO: Handle UartHandler errors better/at all.
 121:../../libDaisy//src/hid/midi.h ****          *  (If there is a UART error, there's not really any recovery
 122:../../libDaisy//src/hid/midi.h ****          *  option at the moment)
 123:../../libDaisy//src/hid/midi.h ****          */
 124:../../libDaisy//src/hid/midi.h ****     static void rxCallback(uint8_t*            data,
 125:../../libDaisy//src/hid/midi.h ****                            size_t              size,
 126:../../libDaisy//src/hid/midi.h ****                            void*               context,
 127:../../libDaisy//src/hid/midi.h ****                            UartHandler::Result res)
 128:../../libDaisy//src/hid/midi.h ****     {
 129:../../libDaisy//src/hid/midi.h ****         /** Read context as transport type */
 130:../../libDaisy//src/hid/midi.h ****         MidiUartTransport* transport
 131:../../libDaisy//src/hid/midi.h ****             = reinterpret_cast<MidiUartTransport*>(context);
 132:../../libDaisy//src/hid/midi.h ****         if(res == UartHandler::Result::OK)
 133:../../libDaisy//src/hid/midi.h ****         {
 134:../../libDaisy//src/hid/midi.h ****             if(transport->parse_callback_)
 135:../../libDaisy//src/hid/midi.h ****             {
 136:../../libDaisy//src/hid/midi.h ****                 transport->parse_callback_(
 137:../../libDaisy//src/hid/midi.h ****                     data, size, transport->parse_context_);
 138:../../libDaisy//src/hid/midi.h ****             }
 139:../../libDaisy//src/hid/midi.h ****         }
 140:../../libDaisy//src/hid/midi.h ****     }
 141:../../libDaisy//src/hid/midi.h **** };
 142:../../libDaisy//src/hid/midi.h **** 
 143:../../libDaisy//src/hid/midi.h **** /**
 144:../../libDaisy//src/hid/midi.h ****     @brief Simple MIDI Handler \n
 145:../../libDaisy//src/hid/midi.h ****     Parses bytes from an input into valid MidiEvents. \n
 146:../../libDaisy//src/hid/midi.h ****     The MidiEvents fill a FIFO queue that the user can pop messages from.
 147:../../libDaisy//src/hid/midi.h ****     @author shensley
 148:../../libDaisy//src/hid/midi.h ****     @date March 2020
 149:../../libDaisy//src/hid/midi.h ****     @ingroup midi
 150:../../libDaisy//src/hid/midi.h **** */
 151:../../libDaisy//src/hid/midi.h **** template <typename Transport>
 152:../../libDaisy//src/hid/midi.h **** class MidiHandler
 153:../../libDaisy//src/hid/midi.h **** {
 154:../../libDaisy//src/hid/midi.h ****   public:
 155:../../libDaisy//src/hid/midi.h ****     MidiHandler() {}
 156:../../libDaisy//src/hid/midi.h ****     ~MidiHandler() {}
ARM GAS  /var/folders/5f/72p4brfx5932kssh4q_5ly0m0000gn/T//cc7WxlGd.s 			page 5


  38              		.loc 2 156 5 view .LVU1
  39              	.LBB408:
  40              	.LBI408:
  41              		.file 3 "../../libDaisy//src/util/FIFO.h"
   1:../../libDaisy//src/util/FIFO.h **** #pragma once
   2:../../libDaisy//src/util/FIFO.h **** 
   3:../../libDaisy//src/util/FIFO.h **** #include <stdint.h>
   4:../../libDaisy//src/util/FIFO.h **** #include <stddef.h>
   5:../../libDaisy//src/util/FIFO.h **** #include <initializer_list>
   6:../../libDaisy//src/util/FIFO.h **** 
   7:../../libDaisy//src/util/FIFO.h **** namespace daisy
   8:../../libDaisy//src/util/FIFO.h **** {
   9:../../libDaisy//src/util/FIFO.h **** /** Capacity-independent base class for FIFO. Use FIFO instead. */
  10:../../libDaisy//src/util/FIFO.h **** template <typename T>
  11:../../libDaisy//src/util/FIFO.h **** class FIFOBase
  12:../../libDaisy//src/util/FIFO.h **** {
  13:../../libDaisy//src/util/FIFO.h ****   protected:
  14:../../libDaisy//src/util/FIFO.h ****     FIFOBase(T* buffer, size_t bufferSize)
  15:../../libDaisy//src/util/FIFO.h ****     : buffer_(buffer), bufferSize_(bufferSize), bufferIn_(0), bufferOut_(0)
  16:../../libDaisy//src/util/FIFO.h ****     {
  17:../../libDaisy//src/util/FIFO.h ****     }
  18:../../libDaisy//src/util/FIFO.h **** 
  19:../../libDaisy//src/util/FIFO.h ****     FIFOBase(T* buffer, size_t bufferSize, std::initializer_list<T> valuesToAdd)
  20:../../libDaisy//src/util/FIFO.h ****     : buffer_(buffer), bufferSize_(bufferSize), bufferIn_(0), bufferOut_(0)
  21:../../libDaisy//src/util/FIFO.h ****     {
  22:../../libDaisy//src/util/FIFO.h ****         PushBack(valuesToAdd);
  23:../../libDaisy//src/util/FIFO.h ****     }
  24:../../libDaisy//src/util/FIFO.h **** 
  25:../../libDaisy//src/util/FIFO.h ****   public:
  26:../../libDaisy//src/util/FIFO.h ****     /** Copies all elements from another FIFO */
  27:../../libDaisy//src/util/FIFO.h ****     FIFOBase<T>& operator=(const FIFOBase<T>& other)
  28:../../libDaisy//src/util/FIFO.h ****     {
  29:../../libDaisy//src/util/FIFO.h ****         bufferIn_ = bufferOut_ = 0;
  30:../../libDaisy//src/util/FIFO.h ****         if(!other.IsEmpty())
  31:../../libDaisy//src/util/FIFO.h ****         {
  32:../../libDaisy//src/util/FIFO.h ****             int readPtr = other.bufferOut_;
  33:../../libDaisy//src/util/FIFO.h ****             while((readPtr != other.bufferIn_) && (bufferIn_ < bufferSize_))
  34:../../libDaisy//src/util/FIFO.h ****             {
  35:../../libDaisy//src/util/FIFO.h ****                 buffer_[bufferIn_++] = other.buffer_[readPtr++];
  36:../../libDaisy//src/util/FIFO.h ****                 if(readPtr >= other.bufferSize_)
  37:../../libDaisy//src/util/FIFO.h ****                     readPtr -= other.bufferSize_;
  38:../../libDaisy//src/util/FIFO.h ****             }
  39:../../libDaisy//src/util/FIFO.h ****         }
  40:../../libDaisy//src/util/FIFO.h ****         return *this;
  41:../../libDaisy//src/util/FIFO.h ****     }
  42:../../libDaisy//src/util/FIFO.h ****     ~FIFOBase() {}
  43:../../libDaisy//src/util/FIFO.h **** 
  44:../../libDaisy//src/util/FIFO.h ****     /** Removes all elements from the FIFO */
  45:../../libDaisy//src/util/FIFO.h ****     void Clear() { bufferIn_ = bufferOut_ = 0; }
  46:../../libDaisy//src/util/FIFO.h **** 
  47:../../libDaisy//src/util/FIFO.h ****     /** Adds an element to the back of the buffer, returning true on
  48:../../libDaisy//src/util/FIFO.h ****         success */
  49:../../libDaisy//src/util/FIFO.h ****     bool PushBack(const T& elementToAdd)
  50:../../libDaisy//src/util/FIFO.h ****     {
  51:../../libDaisy//src/util/FIFO.h ****         if(!IsFull())
  52:../../libDaisy//src/util/FIFO.h ****         {
  53:../../libDaisy//src/util/FIFO.h ****             buffer_[bufferIn_++] = elementToAdd;
ARM GAS  /var/folders/5f/72p4brfx5932kssh4q_5ly0m0000gn/T//cc7WxlGd.s 			page 6


  54:../../libDaisy//src/util/FIFO.h ****             if(bufferIn_ >= bufferSize_)
  55:../../libDaisy//src/util/FIFO.h ****                 bufferIn_ -= bufferSize_;
  56:../../libDaisy//src/util/FIFO.h ****             return true;
  57:../../libDaisy//src/util/FIFO.h ****         }
  58:../../libDaisy//src/util/FIFO.h ****         return false;
  59:../../libDaisy//src/util/FIFO.h ****     }
  60:../../libDaisy//src/util/FIFO.h **** 
  61:../../libDaisy//src/util/FIFO.h ****     /** Adds multiple elements and returns the number of elements that were added */
  62:../../libDaisy//src/util/FIFO.h ****     int PushBack(std::initializer_list<T> valuesToAdd)
  63:../../libDaisy//src/util/FIFO.h ****     {
  64:../../libDaisy//src/util/FIFO.h ****         int numAdded = 0;
  65:../../libDaisy//src/util/FIFO.h ****         for(const auto& v : valuesToAdd)
  66:../../libDaisy//src/util/FIFO.h ****         {
  67:../../libDaisy//src/util/FIFO.h ****             if(IsFull())
  68:../../libDaisy//src/util/FIFO.h ****                 return numAdded;
  69:../../libDaisy//src/util/FIFO.h **** 
  70:../../libDaisy//src/util/FIFO.h ****             PushBack(v);
  71:../../libDaisy//src/util/FIFO.h ****             numAdded++;
  72:../../libDaisy//src/util/FIFO.h ****         }
  73:../../libDaisy//src/util/FIFO.h ****         return numAdded;
  74:../../libDaisy//src/util/FIFO.h ****     }
  75:../../libDaisy//src/util/FIFO.h **** 
  76:../../libDaisy//src/util/FIFO.h ****     /** returns a reference to the last element */
  77:../../libDaisy//src/util/FIFO.h ****     T& Back()
  78:../../libDaisy//src/util/FIFO.h ****     {
  79:../../libDaisy//src/util/FIFO.h ****         if(IsEmpty())
  80:../../libDaisy//src/util/FIFO.h ****             // invalid, but better not pass a temporary T() object as a reference...
  81:../../libDaisy//src/util/FIFO.h ****             return buffer_[0];
  82:../../libDaisy//src/util/FIFO.h ****         int idx = bufferIn_ - 1;
  83:../../libDaisy//src/util/FIFO.h ****         if(idx < 0)
  84:../../libDaisy//src/util/FIFO.h ****             idx += bufferSize_;
  85:../../libDaisy//src/util/FIFO.h ****         return buffer_[idx];
  86:../../libDaisy//src/util/FIFO.h ****     }
  87:../../libDaisy//src/util/FIFO.h **** 
  88:../../libDaisy//src/util/FIFO.h ****     /** returns a reference to the last element */
  89:../../libDaisy//src/util/FIFO.h ****     const T& Back() const
  90:../../libDaisy//src/util/FIFO.h ****     {
  91:../../libDaisy//src/util/FIFO.h ****         if(IsEmpty())
  92:../../libDaisy//src/util/FIFO.h ****             // invalid, but better not pass a temporary T() object as a reference...
  93:../../libDaisy//src/util/FIFO.h ****             return buffer_[0];
  94:../../libDaisy//src/util/FIFO.h ****         int idx = bufferIn_ - 1;
  95:../../libDaisy//src/util/FIFO.h ****         if(idx < 0)
  96:../../libDaisy//src/util/FIFO.h ****             idx += bufferSize_;
  97:../../libDaisy//src/util/FIFO.h ****         return buffer_[idx];
  98:../../libDaisy//src/util/FIFO.h ****     }
  99:../../libDaisy//src/util/FIFO.h **** 
 100:../../libDaisy//src/util/FIFO.h ****     /** removes and returns an element from the front of the buffer */
 101:../../libDaisy//src/util/FIFO.h ****     T PopFront()
 102:../../libDaisy//src/util/FIFO.h ****     {
 103:../../libDaisy//src/util/FIFO.h ****         if(IsEmpty())
 104:../../libDaisy//src/util/FIFO.h ****             return T();
 105:../../libDaisy//src/util/FIFO.h ****         else
 106:../../libDaisy//src/util/FIFO.h ****         {
 107:../../libDaisy//src/util/FIFO.h ****             const auto result = buffer_[bufferOut_];
 108:../../libDaisy//src/util/FIFO.h ****             bufferOut_++;
 109:../../libDaisy//src/util/FIFO.h ****             if(bufferOut_ >= bufferSize_)
 110:../../libDaisy//src/util/FIFO.h ****                 bufferOut_ -= bufferSize_;
ARM GAS  /var/folders/5f/72p4brfx5932kssh4q_5ly0m0000gn/T//cc7WxlGd.s 			page 7


 111:../../libDaisy//src/util/FIFO.h ****             return result;
 112:../../libDaisy//src/util/FIFO.h ****         }
 113:../../libDaisy//src/util/FIFO.h ****     }
 114:../../libDaisy//src/util/FIFO.h **** 
 115:../../libDaisy//src/util/FIFO.h ****     /** returns a copy of the first element */
 116:../../libDaisy//src/util/FIFO.h ****     T& Front()
 117:../../libDaisy//src/util/FIFO.h ****     {
 118:../../libDaisy//src/util/FIFO.h ****         if(IsEmpty())
 119:../../libDaisy//src/util/FIFO.h ****             // invalid, but better not pass a temporary T() object as a reference...
 120:../../libDaisy//src/util/FIFO.h ****             return buffer_[0];
 121:../../libDaisy//src/util/FIFO.h ****         return buffer_[bufferOut_];
 122:../../libDaisy//src/util/FIFO.h ****     }
 123:../../libDaisy//src/util/FIFO.h **** 
 124:../../libDaisy//src/util/FIFO.h ****     /** returns a reference to the first element */
 125:../../libDaisy//src/util/FIFO.h ****     const T& Front() const
 126:../../libDaisy//src/util/FIFO.h ****     {
 127:../../libDaisy//src/util/FIFO.h ****         if(IsEmpty())
 128:../../libDaisy//src/util/FIFO.h ****             // invalid, but better not pass a temporary T() object as a reference...
 129:../../libDaisy//src/util/FIFO.h ****             return buffer_[0];
 130:../../libDaisy//src/util/FIFO.h ****         return buffer_[bufferOut_];
 131:../../libDaisy//src/util/FIFO.h ****     }
 132:../../libDaisy//src/util/FIFO.h **** 
 133:../../libDaisy//src/util/FIFO.h ****     /** Returns true if the buffer contains an element equal to the provided value */
 134:../../libDaisy//src/util/FIFO.h ****     bool Contains(const T& element)
 135:../../libDaisy//src/util/FIFO.h ****     {
 136:../../libDaisy//src/util/FIFO.h ****         auto idx = bufferOut_;
 137:../../libDaisy//src/util/FIFO.h ****         while(idx != bufferIn_)
 138:../../libDaisy//src/util/FIFO.h ****         {
 139:../../libDaisy//src/util/FIFO.h ****             if(buffer_[idx] == element)
 140:../../libDaisy//src/util/FIFO.h ****                 return true;
 141:../../libDaisy//src/util/FIFO.h ****             idx++;
 142:../../libDaisy//src/util/FIFO.h ****             if(idx >= bufferSize_)
 143:../../libDaisy//src/util/FIFO.h ****                 idx -= bufferSize_;
 144:../../libDaisy//src/util/FIFO.h ****         }
 145:../../libDaisy//src/util/FIFO.h ****         return false;
 146:../../libDaisy//src/util/FIFO.h ****     }
 147:../../libDaisy//src/util/FIFO.h **** 
 148:../../libDaisy//src/util/FIFO.h ****     /** Returns the number of elements in the buffer that are equal to the provided value */
 149:../../libDaisy//src/util/FIFO.h ****     size_t CountEqualTo(const T& element)
 150:../../libDaisy//src/util/FIFO.h ****     {
 151:../../libDaisy//src/util/FIFO.h ****         size_t result = 0;
 152:../../libDaisy//src/util/FIFO.h ****         size_t idx    = bufferOut_;
 153:../../libDaisy//src/util/FIFO.h ****         while(idx != bufferIn_)
 154:../../libDaisy//src/util/FIFO.h ****         {
 155:../../libDaisy//src/util/FIFO.h ****             if(buffer_[idx] == element)
 156:../../libDaisy//src/util/FIFO.h ****                 result++;
 157:../../libDaisy//src/util/FIFO.h ****             idx++;
 158:../../libDaisy//src/util/FIFO.h ****             if(idx >= bufferSize_)
 159:../../libDaisy//src/util/FIFO.h ****                 idx -= bufferSize_;
 160:../../libDaisy//src/util/FIFO.h ****         }
 161:../../libDaisy//src/util/FIFO.h ****         return result;
 162:../../libDaisy//src/util/FIFO.h ****     }
 163:../../libDaisy//src/util/FIFO.h **** 
 164:../../libDaisy//src/util/FIFO.h ****     /** returns true, if the buffer is empty */
 165:../../libDaisy//src/util/FIFO.h ****     bool IsEmpty() const { return bufferIn_ == bufferOut_; }
 166:../../libDaisy//src/util/FIFO.h **** 
 167:../../libDaisy//src/util/FIFO.h ****     /** returns true, if the buffer is Full */
ARM GAS  /var/folders/5f/72p4brfx5932kssh4q_5ly0m0000gn/T//cc7WxlGd.s 			page 8


 168:../../libDaisy//src/util/FIFO.h ****     bool IsFull() const { return GetNumElements() == bufferSize_ - 1; }
 169:../../libDaisy//src/util/FIFO.h **** 
 170:../../libDaisy//src/util/FIFO.h ****     /** returns the number of elements in the buffer */
 171:../../libDaisy//src/util/FIFO.h ****     size_t GetNumElements() const
 172:../../libDaisy//src/util/FIFO.h ****     {
 173:../../libDaisy//src/util/FIFO.h ****         int32_t numElements = bufferIn_ - bufferOut_;
 174:../../libDaisy//src/util/FIFO.h ****         if(numElements < 0)
 175:../../libDaisy//src/util/FIFO.h ****             numElements += bufferSize_;
 176:../../libDaisy//src/util/FIFO.h ****         return size_t(numElements);
 177:../../libDaisy//src/util/FIFO.h ****     }
 178:../../libDaisy//src/util/FIFO.h **** 
 179:../../libDaisy//src/util/FIFO.h ****     /** inserts an element "idx" positions behind the first element and returns true if successful 
 180:../../libDaisy//src/util/FIFO.h ****     bool Insert(size_t idx, const T& element)
 181:../../libDaisy//src/util/FIFO.h ****     {
 182:../../libDaisy//src/util/FIFO.h ****         if(idx > GetNumElements())
 183:../../libDaisy//src/util/FIFO.h ****             return false;
 184:../../libDaisy//src/util/FIFO.h ****         if(IsFull())
 185:../../libDaisy//src/util/FIFO.h ****             return false;
 186:../../libDaisy//src/util/FIFO.h ****         if(idx == GetNumElements())
 187:../../libDaisy//src/util/FIFO.h ****         {
 188:../../libDaisy//src/util/FIFO.h ****             PushBack(element);
 189:../../libDaisy//src/util/FIFO.h ****             return true;
 190:../../libDaisy//src/util/FIFO.h ****         }
 191:../../libDaisy//src/util/FIFO.h ****         // copy last element
 192:../../libDaisy//src/util/FIFO.h ****         PushBack(Back());
 193:../../libDaisy//src/util/FIFO.h ****         // move remaining elements: n => n+1
 194:../../libDaisy//src/util/FIFO.h ****         for(int i = GetNumElements() - 2; i > int(idx); i--)
 195:../../libDaisy//src/util/FIFO.h ****             (*this)[i] = (*this)[i - 1];
 196:../../libDaisy//src/util/FIFO.h ****         // insert element
 197:../../libDaisy//src/util/FIFO.h ****         (*this)[idx] = element;
 198:../../libDaisy//src/util/FIFO.h ****         return true;
 199:../../libDaisy//src/util/FIFO.h ****     }
 200:../../libDaisy//src/util/FIFO.h **** 
 201:../../libDaisy//src/util/FIFO.h ****     /** removes the element "idx" positions behind the first element 
 202:../../libDaisy//src/util/FIFO.h ****      *  and returns true if successful */
 203:../../libDaisy//src/util/FIFO.h ****     bool Remove(size_t idx)
 204:../../libDaisy//src/util/FIFO.h ****     {
 205:../../libDaisy//src/util/FIFO.h ****         if(idx >= GetNumElements())
 206:../../libDaisy//src/util/FIFO.h ****             return false;
 207:../../libDaisy//src/util/FIFO.h **** 
 208:../../libDaisy//src/util/FIFO.h ****         size_t index = bufferOut_ + idx;
 209:../../libDaisy//src/util/FIFO.h ****         if(index >= bufferSize_)
 210:../../libDaisy//src/util/FIFO.h ****             index -= bufferSize_;
 211:../../libDaisy//src/util/FIFO.h ****         size_t nextIndex = index + 1;
 212:../../libDaisy//src/util/FIFO.h ****         if(nextIndex >= bufferSize_)
 213:../../libDaisy//src/util/FIFO.h ****             nextIndex -= bufferSize_;
 214:../../libDaisy//src/util/FIFO.h **** 
 215:../../libDaisy//src/util/FIFO.h ****         while(nextIndex != bufferIn_)
 216:../../libDaisy//src/util/FIFO.h ****         {
 217:../../libDaisy//src/util/FIFO.h ****             buffer_[index] = buffer_[nextIndex];
 218:../../libDaisy//src/util/FIFO.h ****             index++;
 219:../../libDaisy//src/util/FIFO.h ****             nextIndex++;
 220:../../libDaisy//src/util/FIFO.h ****             if(index >= bufferSize_)
 221:../../libDaisy//src/util/FIFO.h ****                 index -= bufferSize_;
 222:../../libDaisy//src/util/FIFO.h ****             if(nextIndex >= bufferSize_)
 223:../../libDaisy//src/util/FIFO.h ****                 nextIndex -= bufferSize_;
 224:../../libDaisy//src/util/FIFO.h ****         }
ARM GAS  /var/folders/5f/72p4brfx5932kssh4q_5ly0m0000gn/T//cc7WxlGd.s 			page 9


 225:../../libDaisy//src/util/FIFO.h **** 
 226:../../libDaisy//src/util/FIFO.h ****         int32_t nextBufferIn = int32_t(bufferIn_) - 1;
 227:../../libDaisy//src/util/FIFO.h ****         if(nextBufferIn < 0)
 228:../../libDaisy//src/util/FIFO.h ****             nextBufferIn += bufferSize_;
 229:../../libDaisy//src/util/FIFO.h ****         bufferIn_ = size_t(nextBufferIn);
 230:../../libDaisy//src/util/FIFO.h **** 
 231:../../libDaisy//src/util/FIFO.h ****         return true;
 232:../../libDaisy//src/util/FIFO.h ****     }
 233:../../libDaisy//src/util/FIFO.h **** 
 234:../../libDaisy//src/util/FIFO.h ****     /** removes all elements from the buffer for which
 235:../../libDaisy//src/util/FIFO.h ****         (buffer(index) == element) returns true and returns the number of
 236:../../libDaisy//src/util/FIFO.h ****         elements that were removed. */
 237:../../libDaisy//src/util/FIFO.h ****     size_t RemoveAllEqualTo(const T& element)
 238:../../libDaisy//src/util/FIFO.h ****     {
 239:../../libDaisy//src/util/FIFO.h ****         size_t numRemoved = 0;
 240:../../libDaisy//src/util/FIFO.h ****         int    idx        = GetNumElements() - 1;
 241:../../libDaisy//src/util/FIFO.h ****         while(idx >= 0)
 242:../../libDaisy//src/util/FIFO.h ****         {
 243:../../libDaisy//src/util/FIFO.h ****             if((*this)[idx] == element)
 244:../../libDaisy//src/util/FIFO.h ****             {
 245:../../libDaisy//src/util/FIFO.h ****                 numRemoved++;
 246:../../libDaisy//src/util/FIFO.h ****                 Remove(idx);
 247:../../libDaisy//src/util/FIFO.h ****                 // was that the last element?
 248:../../libDaisy//src/util/FIFO.h ****                 if(idx == int(GetNumElements()) - 1)
 249:../../libDaisy//src/util/FIFO.h ****                     idx--;
 250:../../libDaisy//src/util/FIFO.h ****             }
 251:../../libDaisy//src/util/FIFO.h ****             else
 252:../../libDaisy//src/util/FIFO.h ****                 idx--;
 253:../../libDaisy//src/util/FIFO.h ****         }
 254:../../libDaisy//src/util/FIFO.h ****         return numRemoved;
 255:../../libDaisy//src/util/FIFO.h ****     }
 256:../../libDaisy//src/util/FIFO.h **** 
 257:../../libDaisy//src/util/FIFO.h ****     /** returns the element "idx" positions behind the first element */
 258:../../libDaisy//src/util/FIFO.h ****     T& operator[](size_t idx)
 259:../../libDaisy//src/util/FIFO.h ****     {
 260:../../libDaisy//src/util/FIFO.h ****         if(idx >= GetNumElements())
 261:../../libDaisy//src/util/FIFO.h ****             // invalid, but better not pass a temporary T() object as a reference...
 262:../../libDaisy//src/util/FIFO.h ****             return buffer_[0];
 263:../../libDaisy//src/util/FIFO.h **** 
 264:../../libDaisy//src/util/FIFO.h ****         size_t index = bufferOut_ + idx;
 265:../../libDaisy//src/util/FIFO.h ****         if(index >= bufferSize_)
 266:../../libDaisy//src/util/FIFO.h ****             index -= bufferSize_;
 267:../../libDaisy//src/util/FIFO.h ****         return buffer_[index];
 268:../../libDaisy//src/util/FIFO.h ****     }
 269:../../libDaisy//src/util/FIFO.h **** 
 270:../../libDaisy//src/util/FIFO.h ****     /** returns the element "idx" positions behind the first element */
 271:../../libDaisy//src/util/FIFO.h ****     const T& operator[](size_t idx) const
 272:../../libDaisy//src/util/FIFO.h ****     {
 273:../../libDaisy//src/util/FIFO.h ****         if(idx >= GetNumElements())
 274:../../libDaisy//src/util/FIFO.h ****             // invalid, but better not pass a temporary T() object as a reference...
 275:../../libDaisy//src/util/FIFO.h ****             return buffer_[0];
 276:../../libDaisy//src/util/FIFO.h **** 
 277:../../libDaisy//src/util/FIFO.h ****         size_t index = bufferOut_ + idx;
 278:../../libDaisy//src/util/FIFO.h ****         if(index >= bufferSize_)
 279:../../libDaisy//src/util/FIFO.h ****             index -= bufferSize_;
 280:../../libDaisy//src/util/FIFO.h ****         return buffer_[index];
 281:../../libDaisy//src/util/FIFO.h ****     }
ARM GAS  /var/folders/5f/72p4brfx5932kssh4q_5ly0m0000gn/T//cc7WxlGd.s 			page 10


 282:../../libDaisy//src/util/FIFO.h **** 
 283:../../libDaisy//src/util/FIFO.h ****     /** returns the total capacity */
 284:../../libDaisy//src/util/FIFO.h ****     size_t GetCapacity() const { return bufferSize_ - 1; }
 285:../../libDaisy//src/util/FIFO.h **** 
 286:../../libDaisy//src/util/FIFO.h ****   private:
 287:../../libDaisy//src/util/FIFO.h ****     FIFOBase(const FIFOBase<T>&) {} // non copyable
 288:../../libDaisy//src/util/FIFO.h **** 
 289:../../libDaisy//src/util/FIFO.h ****   private:
 290:../../libDaisy//src/util/FIFO.h ****     T*           buffer_;
 291:../../libDaisy//src/util/FIFO.h ****     const size_t bufferSize_;
 292:../../libDaisy//src/util/FIFO.h ****     size_t       bufferIn_;
 293:../../libDaisy//src/util/FIFO.h ****     size_t       bufferOut_;
 294:../../libDaisy//src/util/FIFO.h **** };
 295:../../libDaisy//src/util/FIFO.h **** 
 296:../../libDaisy//src/util/FIFO.h **** /** A simple FIFO ring buffer with a fixed size. */
 297:../../libDaisy//src/util/FIFO.h **** template <typename T, size_t capacity>
 298:../../libDaisy//src/util/FIFO.h **** class FIFO : public FIFOBase<T>
  42              		.loc 3 298 7 view .LVU2
  43              	.LBB409:
  44              	.LBI409:
  42:../../libDaisy//src/util/FIFO.h **** 
  45              		.loc 3 42 5 view .LVU3
  42:../../libDaisy//src/util/FIFO.h **** 
  46              		.loc 3 42 5 is_stmt 0 view .LVU4
  47              	.LBE409:
  48              	.LBE408:
  49              	.LBB410:
  50              	.LBI410:
  51              		.file 4 "../../libDaisy//src/hid/midi_parser.h"
   1:../../libDaisy//src/hid/midi_parser.h **** #pragma once
   2:../../libDaisy//src/hid/midi_parser.h **** #ifndef DSY_MIDI_PARSER_H
   3:../../libDaisy//src/hid/midi_parser.h **** #define DSY_MIDI_PARSER_H
   4:../../libDaisy//src/hid/midi_parser.h **** 
   5:../../libDaisy//src/hid/midi_parser.h **** #include <stdint.h>
   6:../../libDaisy//src/hid/midi_parser.h **** #include <stdlib.h>
   7:../../libDaisy//src/hid/midi_parser.h **** #include "hid/MidiEvent.h"
   8:../../libDaisy//src/hid/midi_parser.h **** 
   9:../../libDaisy//src/hid/midi_parser.h **** namespace daisy
  10:../../libDaisy//src/hid/midi_parser.h **** {
  11:../../libDaisy//src/hid/midi_parser.h **** /** @brief   Utility class for parsing raw byte streams into MIDI messages
  12:../../libDaisy//src/hid/midi_parser.h ****  *  @details Implemented as a state machine designed to parse one byte at a time
  13:../../libDaisy//src/hid/midi_parser.h ****  *  @ingroup midi
  14:../../libDaisy//src/hid/midi_parser.h ****  */
  15:../../libDaisy//src/hid/midi_parser.h **** class MidiParser
  16:../../libDaisy//src/hid/midi_parser.h **** {
  17:../../libDaisy//src/hid/midi_parser.h ****   public:
  18:../../libDaisy//src/hid/midi_parser.h ****     MidiParser(){};
  19:../../libDaisy//src/hid/midi_parser.h ****     ~MidiParser() {}
  52              		.loc 4 19 5 is_stmt 1 view .LVU5
  53              		.loc 4 19 5 is_stmt 0 view .LVU6
  54              	.LBE410:
  55              	.LBB411:
  56              	.LBI411:
  32:../../libDaisy//src/hid/midi.h **** 
  57              		.loc 2 32 5 is_stmt 1 view .LVU7
  32:../../libDaisy//src/hid/midi.h **** 
  58              		.loc 2 32 5 is_stmt 0 view .LVU8
ARM GAS  /var/folders/5f/72p4brfx5932kssh4q_5ly0m0000gn/T//cc7WxlGd.s 			page 11


  59              	.LBE411:
  60              	.LBE407:
  61              	.LBB412:
  62              	.LBI412:
  63              		.file 5 "../../libDaisy//src/hid/rgb_led.h"
   1:../../libDaisy//src/hid/rgb_led.h **** #pragma once
   2:../../libDaisy//src/hid/rgb_led.h **** #ifndef DSY_RGB_LED_H
   3:../../libDaisy//src/hid/rgb_led.h **** #define DSY_RGB_LED_H
   4:../../libDaisy//src/hid/rgb_led.h **** #include "hid/led.h"
   5:../../libDaisy//src/hid/rgb_led.h **** #include "util/color.h"
   6:../../libDaisy//src/hid/rgb_led.h **** 
   7:../../libDaisy//src/hid/rgb_led.h **** namespace daisy
   8:../../libDaisy//src/hid/rgb_led.h **** {
   9:../../libDaisy//src/hid/rgb_led.h **** /** @addtogroup feedback
  10:../../libDaisy//src/hid/rgb_led.h ****     @{
  11:../../libDaisy//src/hid/rgb_led.h **** */
  12:../../libDaisy//src/hid/rgb_led.h **** 
  13:../../libDaisy//src/hid/rgb_led.h **** /** 3x LEDs configured as an RGB for ease of use. */
  14:../../libDaisy//src/hid/rgb_led.h **** class RgbLed
  15:../../libDaisy//src/hid/rgb_led.h **** {
  16:../../libDaisy//src/hid/rgb_led.h ****   public:
  17:../../libDaisy//src/hid/rgb_led.h ****     RgbLed() {}
  18:../../libDaisy//src/hid/rgb_led.h ****     ~RgbLed() {}
  64              		.loc 5 18 5 is_stmt 1 view .LVU9
  65              	.LBB413:
  66              	.LBI413:
  67              		.file 6 "../../libDaisy//src/hid/led.h"
   1:../../libDaisy//src/hid/led.h **** 
   2:../../libDaisy//src/hid/led.h **** #pragma once
   3:../../libDaisy//src/hid/led.h **** #ifndef DSY_LED_H
   4:../../libDaisy//src/hid/led.h **** #define DSY_LED_H
   5:../../libDaisy//src/hid/led.h **** #include "daisy_core.h"
   6:../../libDaisy//src/hid/led.h **** #include "per/gpio.h"
   7:../../libDaisy//src/hid/led.h **** 
   8:../../libDaisy//src/hid/led.h **** /* TODO - Get this set up to work with the dev_leddriver stuff as well
   9:../../libDaisy//src/hid/led.h **** - Setup Hardware PWM for pins that have it
  10:../../libDaisy//src/hid/led.h **** */
  11:../../libDaisy//src/hid/led.h **** 
  12:../../libDaisy//src/hid/led.h **** namespace daisy
  13:../../libDaisy//src/hid/led.h **** {
  14:../../libDaisy//src/hid/led.h **** /**
  15:../../libDaisy//src/hid/led.h ****     @brief LED Class providing simple Software PWM ability, etc \n 
  16:../../libDaisy//src/hid/led.h ****     Eventually this will work with hardware PWM, and external LED Driver devices as well.
  17:../../libDaisy//src/hid/led.h ****     @author shensley
  18:../../libDaisy//src/hid/led.h ****     @date March 2020
  19:../../libDaisy//src/hid/led.h ****     @ingroup feedback
  20:../../libDaisy//src/hid/led.h **** */
  21:../../libDaisy//src/hid/led.h **** class Led
  22:../../libDaisy//src/hid/led.h **** {
  23:../../libDaisy//src/hid/led.h ****   public:
  24:../../libDaisy//src/hid/led.h ****     Led() {}
  25:../../libDaisy//src/hid/led.h ****     ~Led() {}
  68              		.loc 6 25 5 view .LVU10
  69              		.loc 6 25 5 is_stmt 0 view .LVU11
  70              	.LBE413:
  71              	.LBB414:
  72              	.LBI414:
ARM GAS  /var/folders/5f/72p4brfx5932kssh4q_5ly0m0000gn/T//cc7WxlGd.s 			page 12


  73              		.loc 6 25 5 is_stmt 1 view .LVU12
  74              		.loc 6 25 5 is_stmt 0 view .LVU13
  75              	.LBE414:
  76              	.LBB415:
  77              	.LBI415:
  78              		.loc 6 25 5 is_stmt 1 view .LVU14
  79              		.loc 6 25 5 is_stmt 0 view .LVU15
  80              	.LBE415:
  81              	.LBE412:
  82              	.LBB416:
  83              	.LBI416:
  84              		.loc 5 18 5 is_stmt 1 view .LVU16
  85              	.LBB417:
  86              	.LBI417:
  87              		.loc 6 25 5 view .LVU17
  88              		.loc 6 25 5 is_stmt 0 view .LVU18
  89              	.LBE417:
  90              	.LBB418:
  91              	.LBI418:
  92              		.loc 6 25 5 is_stmt 1 view .LVU19
  93              		.loc 6 25 5 is_stmt 0 view .LVU20
  94              	.LBE418:
  95              	.LBB419:
  96              	.LBI419:
  97              		.loc 6 25 5 is_stmt 1 view .LVU21
  98              		.loc 6 25 5 is_stmt 0 view .LVU22
  99              	.LBE419:
 100              	.LBE416:
 101              	.LBB420:
 102              	.LBI420:
 103              		.file 7 "../../libDaisy//src/hid/switch.h"
   1:../../libDaisy//src/hid/switch.h **** #pragma once
   2:../../libDaisy//src/hid/switch.h **** #ifndef DSY_SWITCH_H
   3:../../libDaisy//src/hid/switch.h **** #define DSY_SWITCH_H
   4:../../libDaisy//src/hid/switch.h **** #include "daisy_core.h"
   5:../../libDaisy//src/hid/switch.h **** #include "per/gpio.h"
   6:../../libDaisy//src/hid/switch.h **** #include "sys/system.h"
   7:../../libDaisy//src/hid/switch.h **** 
   8:../../libDaisy//src/hid/switch.h **** namespace daisy
   9:../../libDaisy//src/hid/switch.h **** {
  10:../../libDaisy//src/hid/switch.h **** /** 
  11:../../libDaisy//src/hid/switch.h ****     Generic Class for handling momentary/latching switches \n 
  12:../../libDaisy//src/hid/switch.h ****     Inspired/influenced by Mutable Instruments (pichenettes) Switch classes
  13:../../libDaisy//src/hid/switch.h ****     @author Stephen Hensley
  14:../../libDaisy//src/hid/switch.h ****     @date December 2019
  15:../../libDaisy//src/hid/switch.h ****     @ingroup controls
  16:../../libDaisy//src/hid/switch.h **** */
  17:../../libDaisy//src/hid/switch.h **** class Switch
  18:../../libDaisy//src/hid/switch.h **** {
  19:../../libDaisy//src/hid/switch.h ****   public:
  20:../../libDaisy//src/hid/switch.h ****     /** Specifies the expected behavior of the switch */
  21:../../libDaisy//src/hid/switch.h ****     enum Type
  22:../../libDaisy//src/hid/switch.h ****     {
  23:../../libDaisy//src/hid/switch.h ****         TYPE_TOGGLE,    /**< & */
  24:../../libDaisy//src/hid/switch.h ****         TYPE_MOMENTARY, /**< & */
  25:../../libDaisy//src/hid/switch.h ****     };
  26:../../libDaisy//src/hid/switch.h ****     /** Specifies whether the pressed is HIGH or LOW. */
ARM GAS  /var/folders/5f/72p4brfx5932kssh4q_5ly0m0000gn/T//cc7WxlGd.s 			page 13


  27:../../libDaisy//src/hid/switch.h ****     enum Polarity
  28:../../libDaisy//src/hid/switch.h ****     {
  29:../../libDaisy//src/hid/switch.h ****         POLARITY_NORMAL,   /**< & */
  30:../../libDaisy//src/hid/switch.h ****         POLARITY_INVERTED, /**< & */
  31:../../libDaisy//src/hid/switch.h ****     };
  32:../../libDaisy//src/hid/switch.h **** 
  33:../../libDaisy//src/hid/switch.h ****     /** Specifies whether to use built-in Pull Up/Down resistors to hold button at a given state wh
  34:../../libDaisy//src/hid/switch.h ****     enum Pull
  35:../../libDaisy//src/hid/switch.h ****     {
  36:../../libDaisy//src/hid/switch.h ****         PULL_UP,   /**< & */
  37:../../libDaisy//src/hid/switch.h ****         PULL_DOWN, /**< & */
  38:../../libDaisy//src/hid/switch.h ****         PULL_NONE, /**< & */
  39:../../libDaisy//src/hid/switch.h ****     };
  40:../../libDaisy//src/hid/switch.h **** 
  41:../../libDaisy//src/hid/switch.h ****     Switch() {}
  42:../../libDaisy//src/hid/switch.h ****     ~Switch() {}
 104              		.loc 7 42 5 is_stmt 1 view .LVU23
 105              		.loc 7 42 5 is_stmt 0 view .LVU24
 106              	.LBE420:
 107              	.LBB421:
 108              	.LBI421:
 109              		.loc 7 42 5 is_stmt 1 view .LVU25
 110              		.loc 7 42 5 is_stmt 0 view .LVU26
 111              	.LBE421:
 112              	.LBB422:
 113              	.LBI422:
 114              		.file 8 "../../libDaisy//src/hid/ctrl.h"
   1:../../libDaisy//src/hid/ctrl.h **** #pragma once
   2:../../libDaisy//src/hid/ctrl.h **** #ifndef DSY_KNOB_H
   3:../../libDaisy//src/hid/ctrl.h **** #define DSY_KNOB_H /**< & */
   4:../../libDaisy//src/hid/ctrl.h **** #include <stdint.h>
   5:../../libDaisy//src/hid/ctrl.h **** 
   6:../../libDaisy//src/hid/ctrl.h **** #ifdef __cplusplus
   7:../../libDaisy//src/hid/ctrl.h **** namespace daisy
   8:../../libDaisy//src/hid/ctrl.h **** {
   9:../../libDaisy//src/hid/ctrl.h **** /**
  10:../../libDaisy//src/hid/ctrl.h ****     @brief Hardware Interface for control inputs \n 
  11:../../libDaisy//src/hid/ctrl.h ****     Primarily designed for ADC input controls such as \n 
  12:../../libDaisy//src/hid/ctrl.h ****     potentiometers, and control voltage. \n 
  13:../../libDaisy//src/hid/ctrl.h ****     @author Stephen Hensley
  14:../../libDaisy//src/hid/ctrl.h ****     @date November 2019
  15:../../libDaisy//src/hid/ctrl.h ****     @ingroup controls
  16:../../libDaisy//src/hid/ctrl.h **** */
  17:../../libDaisy//src/hid/ctrl.h **** class AnalogControl
  18:../../libDaisy//src/hid/ctrl.h **** {
  19:../../libDaisy//src/hid/ctrl.h ****   public:
  20:../../libDaisy//src/hid/ctrl.h ****     /** Constructor */
  21:../../libDaisy//src/hid/ctrl.h ****     AnalogControl() {}
  22:../../libDaisy//src/hid/ctrl.h ****     /** destructor */
  23:../../libDaisy//src/hid/ctrl.h ****     ~AnalogControl() {}
 115              		.loc 8 23 5 is_stmt 1 view .LVU27
 116              		.loc 8 23 5 is_stmt 0 view .LVU28
 117              	.LBE422:
 118              	.LBB423:
 119              	.LBI423:
 120              		.loc 8 23 5 is_stmt 1 view .LVU29
 121              		.loc 8 23 5 is_stmt 0 view .LVU30
ARM GAS  /var/folders/5f/72p4brfx5932kssh4q_5ly0m0000gn/T//cc7WxlGd.s 			page 14


 122              	.LBE423:
 123              	.LBB424:
 124              	.LBI424:
 125              		.file 9 "../../libDaisy//src/hid/encoder.h"
   1:../../libDaisy//src/hid/encoder.h **** #pragma once
   2:../../libDaisy//src/hid/encoder.h **** #ifndef DSY_ENCODER_H
   3:../../libDaisy//src/hid/encoder.h **** #define DSY_ENCODER_H
   4:../../libDaisy//src/hid/encoder.h **** #include "daisy_core.h"
   5:../../libDaisy//src/hid/encoder.h **** #include "per/gpio.h"
   6:../../libDaisy//src/hid/encoder.h **** #include "hid/switch.h"
   7:../../libDaisy//src/hid/encoder.h **** 
   8:../../libDaisy//src/hid/encoder.h **** namespace daisy
   9:../../libDaisy//src/hid/encoder.h **** {
  10:../../libDaisy//src/hid/encoder.h **** /** 
  11:../../libDaisy//src/hid/encoder.h ****     @brief Generic Class for handling Quadrature Encoders \n 
  12:../../libDaisy//src/hid/encoder.h ****     Inspired/influenced by Mutable Instruments (pichenettes) Encoder classes
  13:../../libDaisy//src/hid/encoder.h ****     @author Stephen Hensley
  14:../../libDaisy//src/hid/encoder.h ****     @date December 2019
  15:../../libDaisy//src/hid/encoder.h ****     @ingroup controls
  16:../../libDaisy//src/hid/encoder.h **** */
  17:../../libDaisy//src/hid/encoder.h **** class Encoder
  18:../../libDaisy//src/hid/encoder.h **** {
  19:../../libDaisy//src/hid/encoder.h ****   public:
  20:../../libDaisy//src/hid/encoder.h ****     Encoder() {}
  21:../../libDaisy//src/hid/encoder.h ****     ~Encoder() {}
 126              		.loc 9 21 5 is_stmt 1 view .LVU31
 127              	.LBB425:
 128              	.LBI425:
 129              		.loc 7 42 5 view .LVU32
 130              		.loc 7 42 5 is_stmt 0 view .LVU33
 131              	.LBE425:
 132              	.LBE424:
 133              	.LBB426:
 134              	.LBI426:
 135              		.file 10 "../../libDaisy//src/daisy_seed.h"
   1:../../libDaisy//src/daisy_seed.h **** #pragma once
   2:../../libDaisy//src/daisy_seed.h **** #ifndef DSY_SEED_H
   3:../../libDaisy//src/daisy_seed.h **** #define DSY_SEED_H
   4:../../libDaisy//src/daisy_seed.h **** 
   5:../../libDaisy//src/daisy_seed.h **** #include "daisy.h"
   6:../../libDaisy//src/daisy_seed.h **** 
   7:../../libDaisy//src/daisy_seed.h **** //Uncomment this out if you're still using the rev2 hardware
   8:../../libDaisy//src/daisy_seed.h **** //#define SEED_REV2
   9:../../libDaisy//src/daisy_seed.h **** 
  10:../../libDaisy//src/daisy_seed.h **** namespace daisy
  11:../../libDaisy//src/daisy_seed.h **** {
  12:../../libDaisy//src/daisy_seed.h **** /**
  13:../../libDaisy//src/daisy_seed.h ****    @brief This is the higher-level interface for the Daisy board. \n 
  14:../../libDaisy//src/daisy_seed.h ****     All basic peripheral configuration/initialization is setup here. \n
  15:../../libDaisy//src/daisy_seed.h **** 
  16:../../libDaisy//src/daisy_seed.h ****    @ingroup boards
  17:../../libDaisy//src/daisy_seed.h **** */
  18:../../libDaisy//src/daisy_seed.h **** class DaisySeed
  19:../../libDaisy//src/daisy_seed.h **** {
  20:../../libDaisy//src/daisy_seed.h ****   public:
  21:../../libDaisy//src/daisy_seed.h ****     DaisySeed() {}
  22:../../libDaisy//src/daisy_seed.h ****     ~DaisySeed() {}
ARM GAS  /var/folders/5f/72p4brfx5932kssh4q_5ly0m0000gn/T//cc7WxlGd.s 			page 15


 136              		.loc 10 22 5 is_stmt 1 view .LVU34
 137              	.LBB427:
 138              	.LBI427:
 139              		.file 11 "../../libDaisy//src/sys/system.h"
   1:../../libDaisy//src/sys/system.h **** #ifndef DSY_SYSTEM_H
   2:../../libDaisy//src/sys/system.h **** #define DSY_SYSTEM_H
   3:../../libDaisy//src/sys/system.h **** 
   4:../../libDaisy//src/sys/system.h **** #ifndef UNIT_TEST // for unit tests, a dummy implementation is provided below
   5:../../libDaisy//src/sys/system.h **** 
   6:../../libDaisy//src/sys/system.h **** #include <cstdint>
   7:../../libDaisy//src/sys/system.h **** #include "per/tim.h"
   8:../../libDaisy//src/sys/system.h **** 
   9:../../libDaisy//src/sys/system.h **** namespace daisy
  10:../../libDaisy//src/sys/system.h **** {
  11:../../libDaisy//src/sys/system.h **** /** A handle for interacting with the Core System.
  12:../../libDaisy//src/sys/system.h ****  ** This includes the Clock tree, MPU, global DMA initialization,
  13:../../libDaisy//src/sys/system.h ****  ** cache handling, and any other necessary global initiailzation
  14:../../libDaisy//src/sys/system.h ****  **
  15:../../libDaisy//src/sys/system.h ****  ** @author shensley
  16:../../libDaisy//src/sys/system.h ****  ** @ingroup system
  17:../../libDaisy//src/sys/system.h ****  */
  18:../../libDaisy//src/sys/system.h **** class System
  19:../../libDaisy//src/sys/system.h **** {
  20:../../libDaisy//src/sys/system.h ****   public:
  21:../../libDaisy//src/sys/system.h ****     /** Contains settings for initializing the System */
  22:../../libDaisy//src/sys/system.h ****     struct Config
  23:../../libDaisy//src/sys/system.h ****     {
  24:../../libDaisy//src/sys/system.h ****         /** Specifies the system clock frequency that feeds APB/AHB clocks, etc. */
  25:../../libDaisy//src/sys/system.h ****         enum class SysClkFreq
  26:../../libDaisy//src/sys/system.h ****         {
  27:../../libDaisy//src/sys/system.h ****             FREQ_400MHZ,
  28:../../libDaisy//src/sys/system.h ****             FREQ_480MHZ,
  29:../../libDaisy//src/sys/system.h ****         };
  30:../../libDaisy//src/sys/system.h **** 
  31:../../libDaisy//src/sys/system.h ****         /** Method to call on the struct to set to defaults
  32:../../libDaisy//src/sys/system.h ****          ** CPU Freq set to 400MHz
  33:../../libDaisy//src/sys/system.h ****          ** Cache Enabled
  34:../../libDaisy//src/sys/system.h ****          ** */
  35:../../libDaisy//src/sys/system.h ****         void Defaults()
  36:../../libDaisy//src/sys/system.h ****         {
  37:../../libDaisy//src/sys/system.h ****             cpu_freq    = SysClkFreq::FREQ_400MHZ;
  38:../../libDaisy//src/sys/system.h ****             use_dcache  = true;
  39:../../libDaisy//src/sys/system.h ****             use_icache  = true;
  40:../../libDaisy//src/sys/system.h ****             skip_clocks = false;
  41:../../libDaisy//src/sys/system.h ****         }
  42:../../libDaisy//src/sys/system.h **** 
  43:../../libDaisy//src/sys/system.h ****         /** Method to call on the struct to set to boost mode:
  44:../../libDaisy//src/sys/system.h ****          ** CPU Freq set to 480MHz
  45:../../libDaisy//src/sys/system.h ****          ** Cache Enabled
  46:../../libDaisy//src/sys/system.h ****          ** */
  47:../../libDaisy//src/sys/system.h ****         void Boost()
  48:../../libDaisy//src/sys/system.h ****         {
  49:../../libDaisy//src/sys/system.h ****             cpu_freq    = SysClkFreq::FREQ_480MHZ;
  50:../../libDaisy//src/sys/system.h ****             use_dcache  = true;
  51:../../libDaisy//src/sys/system.h ****             use_icache  = true;
  52:../../libDaisy//src/sys/system.h ****             skip_clocks = false;
  53:../../libDaisy//src/sys/system.h ****         }
ARM GAS  /var/folders/5f/72p4brfx5932kssh4q_5ly0m0000gn/T//cc7WxlGd.s 			page 16


  54:../../libDaisy//src/sys/system.h **** 
  55:../../libDaisy//src/sys/system.h ****         SysClkFreq cpu_freq;
  56:../../libDaisy//src/sys/system.h ****         bool       use_dcache;
  57:../../libDaisy//src/sys/system.h ****         bool       use_icache;
  58:../../libDaisy//src/sys/system.h ****         bool       skip_clocks;
  59:../../libDaisy//src/sys/system.h ****     };
  60:../../libDaisy//src/sys/system.h **** 
  61:../../libDaisy//src/sys/system.h ****     /** Describes the different regions of memory available to the Daisy */
  62:../../libDaisy//src/sys/system.h ****     enum MemoryRegion
  63:../../libDaisy//src/sys/system.h ****     {
  64:../../libDaisy//src/sys/system.h ****         INTERNAL_FLASH = 0,
  65:../../libDaisy//src/sys/system.h ****         ITCMRAM,
  66:../../libDaisy//src/sys/system.h ****         DTCMRAM,
  67:../../libDaisy//src/sys/system.h ****         SRAM_D1,
  68:../../libDaisy//src/sys/system.h ****         SRAM_D2,
  69:../../libDaisy//src/sys/system.h ****         SRAM_D3,
  70:../../libDaisy//src/sys/system.h ****         SDRAM,
  71:../../libDaisy//src/sys/system.h ****         QSPI,
  72:../../libDaisy//src/sys/system.h ****         INVALID_ADDRESS,
  73:../../libDaisy//src/sys/system.h ****     };
  74:../../libDaisy//src/sys/system.h **** 
  75:../../libDaisy//src/sys/system.h ****     /** Bootloader struct for controlling bootloading parameters */
  76:../../libDaisy//src/sys/system.h ****     struct BootInfo
  77:../../libDaisy//src/sys/system.h ****     {
  78:../../libDaisy//src/sys/system.h ****         enum class Type : uint32_t
  79:../../libDaisy//src/sys/system.h ****         {
  80:../../libDaisy//src/sys/system.h ****             INVALID      = 0x00000000,
  81:../../libDaisy//src/sys/system.h ****             JUMP         = 0xDEADBEEF,
  82:../../libDaisy//src/sys/system.h ****             SKIP_TIMEOUT = 0x5AFEB007,
  83:../../libDaisy//src/sys/system.h ****             INF_TIMEOUT  = 0xB0074EFA,
  84:../../libDaisy//src/sys/system.h ****         } status;
  85:../../libDaisy//src/sys/system.h ****         uint32_t data;
  86:../../libDaisy//src/sys/system.h ****         enum class Version : uint32_t
  87:../../libDaisy//src/sys/system.h ****         {
  88:../../libDaisy//src/sys/system.h ****             LT_v6_0 = 0, // Less than v6.0
  89:../../libDaisy//src/sys/system.h ****             NONE,        // No bootloader present
  90:../../libDaisy//src/sys/system.h ****             v6_0,        // v6.0
  91:../../libDaisy//src/sys/system.h ****             v6_1,        // v6.1 or greater
  92:../../libDaisy//src/sys/system.h ****             LAST
  93:../../libDaisy//src/sys/system.h ****         } version;
  94:../../libDaisy//src/sys/system.h ****     };
  95:../../libDaisy//src/sys/system.h **** 
  96:../../libDaisy//src/sys/system.h ****     System() {}
  97:../../libDaisy//src/sys/system.h ****     ~System() {}
 140              		.loc 11 97 5 view .LVU35
 141              		.loc 11 97 5 is_stmt 0 view .LVU36
 142              	.LBE427:
 143              	.LBB428:
 144              	.LBI428:
 145              		.file 12 "../../libDaisy//src/hid/usb.h"
   1:../../libDaisy//src/hid/usb.h **** #pragma once
   2:../../libDaisy//src/hid/usb.h **** #ifndef DSY_HID_USB_H
   3:../../libDaisy//src/hid/usb.h **** #define DSY_HID_USB_H
   4:../../libDaisy//src/hid/usb.h **** #include <stdint.h>
   5:../../libDaisy//src/hid/usb.h **** #include <stdlib.h>
   6:../../libDaisy//src/hid/usb.h **** 
   7:../../libDaisy//src/hid/usb.h **** namespace daisy
ARM GAS  /var/folders/5f/72p4brfx5932kssh4q_5ly0m0000gn/T//cc7WxlGd.s 			page 17


   8:../../libDaisy//src/hid/usb.h **** /** @addtogroup human_interface
   9:../../libDaisy//src/hid/usb.h ****     @{
  10:../../libDaisy//src/hid/usb.h **** */
  11:../../libDaisy//src/hid/usb.h **** 
  12:../../libDaisy//src/hid/usb.h **** {
  13:../../libDaisy//src/hid/usb.h **** /** 
  14:../../libDaisy//src/hid/usb.h ****     @brief Interface for initializing and using the USB Peripherals on the daisy
  15:../../libDaisy//src/hid/usb.h ****     @author Stephen Hensley
  16:../../libDaisy//src/hid/usb.h ****     @date December 2019
  17:../../libDaisy//src/hid/usb.h **** */
  18:../../libDaisy//src/hid/usb.h **** class UsbHandle
  19:../../libDaisy//src/hid/usb.h **** {
  20:../../libDaisy//src/hid/usb.h ****   public:
  21:../../libDaisy//src/hid/usb.h ****     /** Return values for USBHandle Functions */
  22:../../libDaisy//src/hid/usb.h ****     enum class Result
  23:../../libDaisy//src/hid/usb.h ****     {
  24:../../libDaisy//src/hid/usb.h ****         OK,
  25:../../libDaisy//src/hid/usb.h ****         ERR,
  26:../../libDaisy//src/hid/usb.h ****     };
  27:../../libDaisy//src/hid/usb.h **** 
  28:../../libDaisy//src/hid/usb.h ****     /** Specified which of the two USB Peripherals to initialize. */
  29:../../libDaisy//src/hid/usb.h ****     enum UsbPeriph
  30:../../libDaisy//src/hid/usb.h ****     {
  31:../../libDaisy//src/hid/usb.h ****         FS_INTERNAL, /**< Internal pin */
  32:../../libDaisy//src/hid/usb.h ****         FS_EXTERNAL, /**< FS External D+ pin is Pin 38 (GPIO32). FS External D- pin is Pin 37 (GPIO
  33:../../libDaisy//src/hid/usb.h ****         FS_BOTH,     /**< Both */
  34:../../libDaisy//src/hid/usb.h ****     };
  35:../../libDaisy//src/hid/usb.h **** 
  36:../../libDaisy//src/hid/usb.h **** 
  37:../../libDaisy//src/hid/usb.h ****     /** Function called upon reception of a buffer */
  38:../../libDaisy//src/hid/usb.h ****     typedef void (*ReceiveCallback)(uint8_t* buff, uint32_t* len);
  39:../../libDaisy//src/hid/usb.h **** 
  40:../../libDaisy//src/hid/usb.h ****     UsbHandle() {}
  41:../../libDaisy//src/hid/usb.h **** 
  42:../../libDaisy//src/hid/usb.h ****     ~UsbHandle() {}
 146              		.loc 12 42 5 is_stmt 1 view .LVU37
 147              		.loc 12 42 5 is_stmt 0 view .LVU38
 148              	.LBE428:
 149              	.LBB429:
 150              	.LBI429:
 151              		.file 13 "../../libDaisy//src/per/adc.h"
   1:../../libDaisy//src/per/adc.h **** #pragma once
   2:../../libDaisy//src/per/adc.h **** #ifndef DSY_ADC_H
   3:../../libDaisy//src/per/adc.h **** #define DSY_ADC_H /**< Macro */
   4:../../libDaisy//src/per/adc.h **** #include <stdint.h>
   5:../../libDaisy//src/per/adc.h **** #include <stdlib.h>
   6:../../libDaisy//src/per/adc.h **** #include "daisy_core.h"
   7:../../libDaisy//src/per/adc.h **** #include "per/gpio.h"
   8:../../libDaisy//src/per/adc.h **** 
   9:../../libDaisy//src/per/adc.h **** #define DSY_ADC_MAX_CHANNELS 16 /**< Maximum number of ADC channels */
  10:../../libDaisy//src/per/adc.h **** 
  11:../../libDaisy//src/per/adc.h **** namespace daisy
  12:../../libDaisy//src/per/adc.h **** {
  13:../../libDaisy//src/per/adc.h **** /** @addtogroup per_analog
  14:../../libDaisy//src/per/adc.h ****     @{
  15:../../libDaisy//src/per/adc.h **** */
  16:../../libDaisy//src/per/adc.h **** 
ARM GAS  /var/folders/5f/72p4brfx5932kssh4q_5ly0m0000gn/T//cc7WxlGd.s 			page 18


  17:../../libDaisy//src/per/adc.h **** /* While there may not be many configuration options here,
  18:../../libDaisy//src/per/adc.h **** using a struct like this allows us to add more configuration
  19:../../libDaisy//src/per/adc.h **** later without breaking existing functionality.
  20:../../libDaisy//src/per/adc.h **** */
  21:../../libDaisy//src/per/adc.h **** 
  22:../../libDaisy//src/per/adc.h **** /** @brief   Configuration Structure for an ADC Channel 
  23:../../libDaisy//src/per/adc.h ****  *  @details This can be used to configure a a single input, 
  24:../../libDaisy//src/per/adc.h ****  *           or a multiplexed input, allowing up to 8 inputs on 
  25:../../libDaisy//src/per/adc.h ****  *           one channel.
  26:../../libDaisy//src/per/adc.h ****  *  @note    Sharing data lines to multiple muxes _is_ possible, but
  27:../../libDaisy//src/per/adc.h ****  *           each channel sharing data lines must be set to the maximum
  28:../../libDaisy//src/per/adc.h ****  *           number of channels, even if some multiplexers have fewer
  29:../../libDaisy//src/per/adc.h ****  *           inputs connected.
  30:../../libDaisy//src/per/adc.h **** */
  31:../../libDaisy//src/per/adc.h **** struct AdcChannelConfig
  32:../../libDaisy//src/per/adc.h **** {
  33:../../libDaisy//src/per/adc.h ****     /** Which pin to use for multiplexing */
  34:../../libDaisy//src/per/adc.h ****     enum MuxPin
  35:../../libDaisy//src/per/adc.h ****     {
  36:../../libDaisy//src/per/adc.h ****         MUX_SEL_0,    /**< & */
  37:../../libDaisy//src/per/adc.h ****         MUX_SEL_1,    /**< & */
  38:../../libDaisy//src/per/adc.h ****         MUX_SEL_2,    /**< & */
  39:../../libDaisy//src/per/adc.h ****         MUX_SEL_LAST, /**< & */
  40:../../libDaisy//src/per/adc.h ****     };
  41:../../libDaisy//src/per/adc.h **** 
  42:../../libDaisy//src/per/adc.h ****     /** \brief per channel conversion speed added to fixed time based on bitdepth, etc. */
  43:../../libDaisy//src/per/adc.h ****     enum ConversionSpeed
  44:../../libDaisy//src/per/adc.h ****     {
  45:../../libDaisy//src/per/adc.h ****         SPEED_1CYCLES_5,
  46:../../libDaisy//src/per/adc.h ****         SPEED_2CYCLES_5,
  47:../../libDaisy//src/per/adc.h ****         SPEED_8CYCLES_5,
  48:../../libDaisy//src/per/adc.h ****         SPEED_16CYCLES_5,
  49:../../libDaisy//src/per/adc.h ****         SPEED_32CYCLES_5,
  50:../../libDaisy//src/per/adc.h ****         SPEED_64CYCLES_5,
  51:../../libDaisy//src/per/adc.h ****         SPEED_387CYCLES_5,
  52:../../libDaisy//src/per/adc.h ****         SPEED_810CYCLES_5,
  53:../../libDaisy//src/per/adc.h ****     };
  54:../../libDaisy//src/per/adc.h **** 
  55:../../libDaisy//src/per/adc.h ****     /** Initializes a single ADC pin as an ADC. 
  56:../../libDaisy//src/per/adc.h ****     \param pin Pin to init.
  57:../../libDaisy//src/per/adc.h ****     \param speed conversion speed for this pin defaults to 8.5 cycles
  58:../../libDaisy//src/per/adc.h ****      */
  59:../../libDaisy//src/per/adc.h ****     void InitSingle(dsy_gpio_pin pin, ConversionSpeed speed = SPEED_8CYCLES_5);
  60:../../libDaisy//src/per/adc.h **** 
  61:../../libDaisy//src/per/adc.h ****     /** 
  62:../../libDaisy//src/per/adc.h ****     Initializes a single ADC pin as a Multiplexed ADC.
  63:../../libDaisy//src/per/adc.h ****     Requires a CD405X Multiplexer connected to the pin.
  64:../../libDaisy//src/per/adc.h ****     You only need to supply the mux pins that are required,
  65:../../libDaisy//src/per/adc.h ****     e.g. a 4052 mux would only require mux_0 and mux_1.
  66:../../libDaisy//src/per/adc.h ****     Internal Callbacks handle the pin addressing.
  67:../../libDaisy//src/per/adc.h ****     \param adc_pin &
  68:../../libDaisy//src/per/adc.h ****     \param mux_channels must be 1-8
  69:../../libDaisy//src/per/adc.h ****     \param mux_0 First mux pin
  70:../../libDaisy//src/per/adc.h ****     \param mux_1 Second mux pin
  71:../../libDaisy//src/per/adc.h ****     \param mux_2 Third mux pin
  72:../../libDaisy//src/per/adc.h ****     \param speed conversion speed for this pin defaults to 8.5 cycles
  73:../../libDaisy//src/per/adc.h ****     */
ARM GAS  /var/folders/5f/72p4brfx5932kssh4q_5ly0m0000gn/T//cc7WxlGd.s 			page 19


  74:../../libDaisy//src/per/adc.h ****     void InitMux(dsy_gpio_pin    adc_pin,
  75:../../libDaisy//src/per/adc.h ****                  size_t          mux_channels,
  76:../../libDaisy//src/per/adc.h ****                  dsy_gpio_pin    mux_0,
  77:../../libDaisy//src/per/adc.h ****                  dsy_gpio_pin    mux_1 = {DSY_GPIOX, 0},
  78:../../libDaisy//src/per/adc.h ****                  dsy_gpio_pin    mux_2 = {DSY_GPIOX, 0},
  79:../../libDaisy//src/per/adc.h ****                  ConversionSpeed speed = SPEED_8CYCLES_5);
  80:../../libDaisy//src/per/adc.h **** 
  81:../../libDaisy//src/per/adc.h ****     dsy_gpio        pin_;                   /**< & */
  82:../../libDaisy//src/per/adc.h ****     dsy_gpio        mux_pin_[MUX_SEL_LAST]; /**< & */
  83:../../libDaisy//src/per/adc.h ****     uint8_t         mux_channels_;          /**< & */
  84:../../libDaisy//src/per/adc.h ****     ConversionSpeed speed_;
  85:../../libDaisy//src/per/adc.h **** };
  86:../../libDaisy//src/per/adc.h **** 
  87:../../libDaisy//src/per/adc.h **** /**
  88:../../libDaisy//src/per/adc.h ****    @brief Handler for analog to digital conversion
  89:../../libDaisy//src/per/adc.h **** */
  90:../../libDaisy//src/per/adc.h **** class AdcHandle
  91:../../libDaisy//src/per/adc.h **** {
  92:../../libDaisy//src/per/adc.h ****   public:
  93:../../libDaisy//src/per/adc.h ****     /** Supported oversampling amounts */
  94:../../libDaisy//src/per/adc.h ****     enum OverSampling
  95:../../libDaisy//src/per/adc.h ****     {
  96:../../libDaisy//src/per/adc.h ****         OVS_NONE, /**< & */
  97:../../libDaisy//src/per/adc.h ****         OVS_4,    /**< & */
  98:../../libDaisy//src/per/adc.h ****         OVS_8,    /**< & */
  99:../../libDaisy//src/per/adc.h ****         OVS_16,   /**< & */
 100:../../libDaisy//src/per/adc.h ****         OVS_32,   /**< & */
 101:../../libDaisy//src/per/adc.h ****         OVS_64,   /**< & */
 102:../../libDaisy//src/per/adc.h ****         OVS_128,  /**< & */
 103:../../libDaisy//src/per/adc.h ****         OVS_256,  /**< & */
 104:../../libDaisy//src/per/adc.h ****         OVS_512,  /**< & */
 105:../../libDaisy//src/per/adc.h ****         OVS_1024, /**< & */
 106:../../libDaisy//src/per/adc.h ****         OVS_LAST, /**< & */
 107:../../libDaisy//src/per/adc.h ****     };
 108:../../libDaisy//src/per/adc.h **** 
 109:../../libDaisy//src/per/adc.h ****     AdcHandle() {}
 110:../../libDaisy//src/per/adc.h ****     ~AdcHandle() {}
 152              		.loc 13 110 5 is_stmt 1 view .LVU39
 153              		.loc 13 110 5 is_stmt 0 view .LVU40
 154              	.LBE429:
 155              	.LBB430:
 156              	.LBI430:
 157              		.file 14 "../../libDaisy//src/hid/audio.h"
   1:../../libDaisy//src/hid/audio.h **** #ifndef DSY_AUDIO_H
   2:../../libDaisy//src/hid/audio.h **** #define DSY_AUDIO_H /**< & */
   3:../../libDaisy//src/hid/audio.h **** 
   4:../../libDaisy//src/hid/audio.h **** #include "per/sai.h"
   5:../../libDaisy//src/hid/audio.h **** 
   6:../../libDaisy//src/hid/audio.h **** namespace daisy
   7:../../libDaisy//src/hid/audio.h **** {
   8:../../libDaisy//src/hid/audio.h **** /** @brief Audio Engine Handle
   9:../../libDaisy//src/hid/audio.h ****  *  @ingroup audio 
  10:../../libDaisy//src/hid/audio.h ****  *  @details This class allows for higher level access to an audio engine.
  11:../../libDaisy//src/hid/audio.h ****  *           If you're using a SOM like the DaisySeed or DaisyPatchSM (or any 
  12:../../libDaisy//src/hid/audio.h ****  *            board that includes one of those objects) then the intialization
  13:../../libDaisy//src/hid/audio.h ****  *            is already taken  care of.
  14:../../libDaisy//src/hid/audio.h ****  *           If you're setting up your own custom hardware, or need to make changes
ARM GAS  /var/folders/5f/72p4brfx5932kssh4q_5ly0m0000gn/T//cc7WxlGd.s 			page 20


  15:../../libDaisy//src/hid/audio.h ****  *           you will have to take the following steps:
  16:../../libDaisy//src/hid/audio.h ****  *             1. Create and Initialize an SaiHandle or two depending on your requirements
  17:../../libDaisy//src/hid/audio.h ****  *             2. Initialize the Audio Handle with the desired settings and the Initialized SaiHand
  18:../../libDaisy//src/hid/audio.h ****  *             3. If the connected codec requires special configuration or initialization, do so
  19:../../libDaisy//src/hid/audio.h ****  *             4. Write a callback method using either the AudioCallback or the InterleavingAudioCa
  20:../../libDaisy//src/hid/audio.h ****  *             5. Start the Audio using one of the StartAudio function
  21:../../libDaisy//src/hid/audio.h ****  */
  22:../../libDaisy//src/hid/audio.h **** class AudioHandle
  23:../../libDaisy//src/hid/audio.h **** {
  24:../../libDaisy//src/hid/audio.h ****   public:
  25:../../libDaisy//src/hid/audio.h ****     /** Manually configurable details about the Audio Engine */
  26:../../libDaisy//src/hid/audio.h ****     /** TODO: Figure out how to get samplerate in here. */
  27:../../libDaisy//src/hid/audio.h ****     struct Config
  28:../../libDaisy//src/hid/audio.h ****     {
  29:../../libDaisy//src/hid/audio.h ****         /** number of samples to process per callback */
  30:../../libDaisy//src/hid/audio.h ****         size_t blocksize;
  31:../../libDaisy//src/hid/audio.h **** 
  32:../../libDaisy//src/hid/audio.h ****         /**< Sample rate of audio */
  33:../../libDaisy//src/hid/audio.h ****         SaiHandle::Config::SampleRate samplerate;
  34:../../libDaisy//src/hid/audio.h **** 
  35:../../libDaisy//src/hid/audio.h ****         /** factor for adjustment before and after callback for hardware that may have extra headro
  36:../../libDaisy//src/hid/audio.h ****         float postgain;
  37:../../libDaisy//src/hid/audio.h **** 
  38:../../libDaisy//src/hid/audio.h ****         /** factor for additional one-sided compensation to audio path for hardware that may
  39:../../libDaisy//src/hid/audio.h ****          *  have unequal input/output ranges
  40:../../libDaisy//src/hid/audio.h ****          */
  41:../../libDaisy//src/hid/audio.h ****         float output_compensation;
  42:../../libDaisy//src/hid/audio.h **** 
  43:../../libDaisy//src/hid/audio.h ****         /** Sets default values for config struct */
  44:../../libDaisy//src/hid/audio.h ****         Config()
  45:../../libDaisy//src/hid/audio.h ****         : blocksize(48),
  46:../../libDaisy//src/hid/audio.h ****           samplerate(SaiHandle::Config::SampleRate::SAI_48KHZ),
  47:../../libDaisy//src/hid/audio.h ****           postgain(1.f),
  48:../../libDaisy//src/hid/audio.h ****           output_compensation(1.f)
  49:../../libDaisy//src/hid/audio.h ****         {
  50:../../libDaisy//src/hid/audio.h ****         }
  51:../../libDaisy//src/hid/audio.h ****     };
  52:../../libDaisy//src/hid/audio.h **** 
  53:../../libDaisy//src/hid/audio.h ****     enum class Result
  54:../../libDaisy//src/hid/audio.h ****     {
  55:../../libDaisy//src/hid/audio.h ****         OK,
  56:../../libDaisy//src/hid/audio.h ****         ERR,
  57:../../libDaisy//src/hid/audio.h ****     };
  58:../../libDaisy//src/hid/audio.h **** 
  59:../../libDaisy//src/hid/audio.h ****     /** Non-Interleaving input buffer
  60:../../libDaisy//src/hid/audio.h ****      * Buffer arranged by float[chn][sample] 
  61:../../libDaisy//src/hid/audio.h ****      * const so that the user can't modify the input
  62:../../libDaisy//src/hid/audio.h ****      */
  63:../../libDaisy//src/hid/audio.h ****     typedef const float* const* InputBuffer;
  64:../../libDaisy//src/hid/audio.h **** 
  65:../../libDaisy//src/hid/audio.h ****     /** Non-Interleaving output buffer
  66:../../libDaisy//src/hid/audio.h ****      * Arranged by float[chn][sample] 
  67:../../libDaisy//src/hid/audio.h ****      */
  68:../../libDaisy//src/hid/audio.h ****     typedef float** OutputBuffer;
  69:../../libDaisy//src/hid/audio.h **** 
  70:../../libDaisy//src/hid/audio.h ****     /** Type for a Non-Interleaving audio callback 
  71:../../libDaisy//src/hid/audio.h ****      * Non-Interleaving audio callbacks in daisy will be of this type
ARM GAS  /var/folders/5f/72p4brfx5932kssh4q_5ly0m0000gn/T//cc7WxlGd.s 			page 21


  72:../../libDaisy//src/hid/audio.h ****      */
  73:../../libDaisy//src/hid/audio.h ****     typedef void (*AudioCallback)(InputBuffer  in,
  74:../../libDaisy//src/hid/audio.h ****                                   OutputBuffer out,
  75:../../libDaisy//src/hid/audio.h ****                                   size_t       size);
  76:../../libDaisy//src/hid/audio.h **** 
  77:../../libDaisy//src/hid/audio.h ****     /** Interleaving Input buffer
  78:../../libDaisy//src/hid/audio.h ****      ** audio is prepared as { L0, R0, L1, R1, . . . LN, RN }]
  79:../../libDaisy//src/hid/audio.h ****      ** this is const, as the user shouldn't modify it
  80:../../libDaisy//src/hid/audio.h ****     */
  81:../../libDaisy//src/hid/audio.h ****     typedef const float* InterleavingInputBuffer;
  82:../../libDaisy//src/hid/audio.h **** 
  83:../../libDaisy//src/hid/audio.h ****     /** Interleaving Output buffer 
  84:../../libDaisy//src/hid/audio.h ****      ** audio is prepared as { L0, R0, L1, R1, . . . LN, RN }
  85:../../libDaisy//src/hid/audio.h ****     */
  86:../../libDaisy//src/hid/audio.h ****     typedef float* InterleavingOutputBuffer;
  87:../../libDaisy//src/hid/audio.h **** 
  88:../../libDaisy//src/hid/audio.h ****     /** Interleaving Audio Callback 
  89:../../libDaisy//src/hid/audio.h ****      * Interleaving audio callbacks in daisy must be of this type
  90:../../libDaisy//src/hid/audio.h ****      */
  91:../../libDaisy//src/hid/audio.h ****     typedef void (*InterleavingAudioCallback)(InterleavingInputBuffer  in,
  92:../../libDaisy//src/hid/audio.h ****                                               InterleavingOutputBuffer out,
  93:../../libDaisy//src/hid/audio.h ****                                               size_t                   size);
  94:../../libDaisy//src/hid/audio.h **** 
  95:../../libDaisy//src/hid/audio.h ****     AudioHandle() : pimpl_(nullptr) {}
  96:../../libDaisy//src/hid/audio.h ****     ~AudioHandle() {}
 158              		.loc 14 96 5 is_stmt 1 view .LVU41
 159              		.loc 14 96 5 is_stmt 0 view .LVU42
 160              	.LBE430:
 161              	.LBE426:
 162              		.loc 1 36 18 view .LVU43
 163 0000 7047     		bx	lr
 164              		.cfi_endproc
 165              	.LFE2565:
 167              		.weak	_ZN5daisy8DaisyPodD1Ev
 168              		.thumb_set _ZN5daisy8DaisyPodD1Ev,_ZN5daisy8DaisyPodD2Ev
 169 0002 00BF     		.section	.text.__tcf_0,"ax",%progbits
 170              		.align	1
 171              		.p2align 2,,3
 172              		.syntax unified
 173              		.thumb
 174              		.thumb_func
 176              	__tcf_0:
 177              	.LFB5329:
 178              		.file 15 "Application.cpp"
   1:Application.cpp **** // Kim Bjerge - 28. November 2025
   2:Application.cpp **** // Daisy Pod IIR Equalizer Example
   3:Application.cpp **** #include <string.h>
   4:Application.cpp **** #include <math.h>
   5:Application.cpp **** #include "daisy_pod.h"
   6:Application.cpp **** #include "daisysp.h"
   7:Application.cpp **** #include "Equalizer.h"
   8:Application.cpp **** #include "Controller.h"
   9:Application.cpp **** 
  10:Application.cpp **** using namespace daisy;
  11:Application.cpp **** using namespace daisysp;
  12:Application.cpp **** 
  13:Application.cpp **** // Use hwPod or hwSeed (Realtime or testing)
ARM GAS  /var/folders/5f/72p4brfx5932kssh4q_5ly0m0000gn/T//cc7WxlGd.s 			page 22


  14:Application.cpp **** #define USE_HWPOD 
  15:Application.cpp **** 
  16:Application.cpp **** #define SAMPLE_RATE 		48000 // Set to 48000 or 96000
  17:Application.cpp **** #define SAMPLE_BUFFER_SIZE 		8
  18:Application.cpp **** #define SAMPLE_TIME_NS		(SAMPLE_BUFFER_SIZE/(float)SAMPLE_RATE*1000000000) // in ns
  19:Application.cpp **** #define NUM_COLORS 				7
  20:Application.cpp **** 
  21:Application.cpp **** //#define DISPLAY_FFT_TIMING # Define to show timing info instead of full spectrum
  22:Application.cpp **** #define USE_SDRAM // Must be used if FFT_SIZE is larger than 4096
  23:Application.cpp **** //#define FFT_SIZE 32768  // Max size for STM32H7 with 16MB SDRAM	
  24:Application.cpp **** //#define FFT_SIZE 8192	
  25:Application.cpp **** #define FFT_SIZE 4096	
  26:Application.cpp **** //#define FFT_SIZE 2048	
  27:Application.cpp **** //#define FFT_SIZE 1024	
  28:Application.cpp **** //#define FFT_SIZE 64	
  29:Application.cpp **** #include "FFT.h"
  30:Application.cpp **** #include "FFTMonitor.h"
  31:Application.cpp **** 
  32:Application.cpp **** static Color my_colors[NUM_COLORS];
 179              		.loc 15 32 14 is_stmt 1 view -0
 180              		.cfi_startproc
 181              		@ args = 0, pretend = 0, frame = 0
 182              		@ frame_needed = 0, uses_anonymous_args = 0
 183              		@ link register save eliminated.
 184              		.loc 15 32 14 is_stmt 0 view .LVU45
 185 0000 7047     		bx	lr
 186              		.cfi_endproc
 187              	.LFE5329:
 189 0002 00BF     		.section	.text._ZN10FFTMonitorD2Ev,"axG",%progbits,_ZN10FFTMonitorD5Ev,comdat
 190              		.align	1
 191              		.p2align 2,,3
 192              		.weak	_ZN10FFTMonitorD2Ev
 193              		.syntax unified
 194              		.thumb
 195              		.thumb_func
 197              	_ZN10FFTMonitorD2Ev:
 198              	.LVL1:
 199              	.LFB5331:
 200              		.file 16 "FFTMonitor.h"
   1:FFTMonitor.h  **** #pragma once
   2:FFTMonitor.h  **** #include "Window.h"
   3:FFTMonitor.h  **** 
   4:FFTMonitor.h  **** #define SAMPLE_TIME_US	(FFT_SIZE/(float)SAMPLE_RATE*1000000) // in us
   5:FFTMonitor.h  **** 
   6:FFTMonitor.h  **** //#define DISPLAY_FFT_TIMING # Define to show timing info instead of full spectrum
   7:FFTMonitor.h  **** 
   8:FFTMonitor.h  **** #ifdef USE_SDRAM
   9:FFTMonitor.h  **** static float DSY_SDRAM_BSS sampleBuffer[FFT_SIZE];
  10:FFTMonitor.h  **** static float DSY_SDRAM_BSS real[FFT_SIZE];
  11:FFTMonitor.h  **** static float DSY_SDRAM_BSS imag[FFT_SIZE];
  12:FFTMonitor.h  **** #endif
  13:FFTMonitor.h  **** 
  14:FFTMonitor.h  **** class FFTMonitor
 201              		.loc 16 14 7 is_stmt 1 view -0
 202              		.cfi_startproc
 203              		@ args = 0, pretend = 0, frame = 0
 204              		@ frame_needed = 0, uses_anonymous_args = 0
ARM GAS  /var/folders/5f/72p4brfx5932kssh4q_5ly0m0000gn/T//cc7WxlGd.s 			page 23


 205              		.loc 16 14 7 is_stmt 0 view .LVU47
 206 0000 10B5     		push	{r4, lr}
 207              		.cfi_def_cfa_offset 8
 208              		.cfi_offset 4, -8
 209              		.cfi_offset 14, -4
 210              		.loc 16 14 7 view .LVU48
 211 0002 0446     		mov	r4, r0
 212              	.LVL2:
 213              	.LBB431:
 214              	.LBI431:
 215              		.file 17 "Window.h"
   1:Window.h      **** // Kim Bjerge - 30. November 2025
   2:Window.h      **** #pragma once
   3:Window.h      **** #include <cmath>
   4:Window.h      **** #include <cstdint>
   5:Window.h      **** 
   6:Window.h      **** class WindowFunction
   7:Window.h      **** {
   8:Window.h      **** public:
   9:Window.h      ****     enum WindowType
  10:Window.h      ****     {
  11:Window.h      ****         RECTANGULAR = 0,
  12:Window.h      ****         HAMMING,
  13:Window.h      ****         HANNING,
  14:Window.h      ****         BLACKMAN,
  15:Window.h      ****         TRIANGULAR,
  16:Window.h      ****         WELCH
  17:Window.h      ****     };
  18:Window.h      **** 
  19:Window.h      ****     WindowFunction(uint16_t size, WindowType type)
  20:Window.h      ****         : N(size), winType(type)
  21:Window.h      ****     {
  22:Window.h      ****         coeffs = new float[N];
  23:Window.h      ****         computeCoefficients();
  24:Window.h      ****     }
  25:Window.h      **** 
  26:Window.h      ****     ~WindowFunction()
 216              		.loc 17 26 5 is_stmt 1 view .LVU49
 217              	.LBB432:
  27:Window.h      ****     {
  28:Window.h      ****         delete[] coeffs;
 218              		.loc 17 28 9 view .LVU50
 219              		.loc 17 28 18 is_stmt 0 view .LVU51
 220 0004 006A     		ldr	r0, [r0, #32]
 221              	.LVL3:
 222              		.loc 17 28 9 view .LVU52
 223 0006 08B1     		cbz	r0, .L5
 224              		.loc 17 28 18 view .LVU53
 225 0008 FFF7FEFF 		bl	_ZdaPv
 226              	.LVL4:
 227              	.L5:
 228              		.loc 17 28 18 view .LVU54
 229              	.LBE432:
 230              	.LBE431:
 231              		.loc 16 14 7 view .LVU55
 232 000c 2046     		mov	r0, r4
 233 000e 10BD     		pop	{r4, pc}
ARM GAS  /var/folders/5f/72p4brfx5932kssh4q_5ly0m0000gn/T//cc7WxlGd.s 			page 24


 234              		.loc 16 14 7 view .LVU56
 235              		.cfi_endproc
 236              	.LFE5331:
 238              		.weak	_ZN10FFTMonitorD1Ev
 239              		.thumb_set _ZN10FFTMonitorD1Ev,_ZN10FFTMonitorD2Ev
 240              		.section	.text._ZN3FFTD2Ev,"axG",%progbits,_ZN3FFTD5Ev,comdat
 241              		.align	1
 242              		.p2align 2,,3
 243              		.weak	_ZN3FFTD2Ev
 244              		.syntax unified
 245              		.thumb
 246              		.thumb_func
 248              	_ZN3FFTD2Ev:
 249              	.LVL5:
 250              	.LFB4706:
 251              		.file 18 "FFT.h"
   1:FFT.h         **** /*
   2:FFT.h         ****  * Simple iterative radix-2 FFT class (float)
   3:FFT.h         ****  * - Precomputes twiddle factors for the current FFT size
   4:FFT.h         ****  * - In-place complex FFT (real[] and imag[] arrays provided by caller)
   5:FFT.h         ****  * - Simple real-FFT wrapper: runs complex FFT on real input (imag zeros) and returns full complex 
   6:FFT.h         ****  *
   7:FFT.h         ****  * Usage:
   8:FFT.h         ****  *   FFT fft;
   9:FFT.h         ****  *   fft.init(1024);                  // must be power of two
  10:FFT.h         ****  *   // prepare arrays
  11:FFT.h         ****  *   float real[1024], imag[1024];
  12:FFT.h         ****  *   // fill real[], set imag[] = 0
  13:FFT.h         ****  *   fft.fft(real, imag, false);      // forward FFT
  14:FFT.h         ****  *
  15:FFT.h         ****  * Note: For maximum throughput on STM32, consider using CMSIS-DSP if available.
  16:FFT.h         ****  */
  17:FFT.h         **** // Kim Bjerge - 29. November 2025
  18:FFT.h         **** #pragma once
  19:FFT.h         **** #include <cstdint>
  20:FFT.h         **** #include <cmath>
  21:FFT.h         **** #include <cstring> // memset, memcpy
  22:FFT.h         **** #include <cassert>
  23:FFT.h         **** 
  24:FFT.h         **** class FFT {
  25:FFT.h         **** public:
  26:FFT.h         ****     FFT() : N(0), log2N(0), twiddles(nullptr), bitrev(nullptr) {}
  27:FFT.h         ****     ~FFT() { freeBuffers(); }
 252              		.loc 18 27 5 is_stmt 1 view -0
 253              		.cfi_startproc
 254              		@ args = 0, pretend = 0, frame = 0
 255              		@ frame_needed = 0, uses_anonymous_args = 0
 256              		.loc 18 27 14 view .LVU58
 257              		.loc 18 27 5 is_stmt 0 view .LVU59
 258 0000 10B5     		push	{r4, lr}
 259              		.cfi_def_cfa_offset 8
 260              		.cfi_offset 4, -8
 261              		.cfi_offset 14, -4
 262              		.loc 18 27 5 view .LVU60
 263 0002 0446     		mov	r4, r0
 264              	.LVL6:
 265              	.LBB436:
ARM GAS  /var/folders/5f/72p4brfx5932kssh4q_5ly0m0000gn/T//cc7WxlGd.s 			page 25


 266              	.LBI436:
  28:FFT.h         **** 
  29:FFT.h         ****     // Initialize for given size (must be power of two)
  30:FFT.h         ****     // returns true on success
  31:FFT.h         ****     bool init(uint32_t size) 
  32:FFT.h         ****     {
  33:FFT.h         ****         if (!isPowerOfTwo(size)) return false;
  34:FFT.h         ****         freeBuffers();
  35:FFT.h         **** 
  36:FFT.h         ****         N = size;
  37:FFT.h         ****         log2N = computeLog2(N);
  38:FFT.h         **** 
  39:FFT.h         ****         // allocate tables
  40:FFT.h         ****         // twiddles: pairs of (cos, sin) for k=0..N/2-1 stored as [2*k], [2*k+1]
  41:FFT.h         ****         twiddles = new float[(N/2) * 2];
  42:FFT.h         ****         // bit reversal table
  43:FFT.h         ****         bitrev = new uint32_t[N];
  44:FFT.h         **** 
  45:FFT.h         ****         if (!twiddles || !bitrev) {
  46:FFT.h         ****             freeBuffers();
  47:FFT.h         ****             return false;
  48:FFT.h         ****         }
  49:FFT.h         **** 
  50:FFT.h         ****         computeTwiddles();
  51:FFT.h         ****         computeBitReversal();
  52:FFT.h         ****         return true;
  53:FFT.h         ****     }
  54:FFT.h         **** 
  55:FFT.h         ****     // In-place complex FFT
  56:FFT.h         ****     // real[], imag[] must be arrays of length N (set imag==0 for pure real input)
  57:FFT.h         ****     // inverse=false => forward FFT (sign = -1); inverse=true => inverse FFT (sign = +1) and scales
  58:FFT.h         ****     void fft(float* real, float* imag, bool inverse = false) 
  59:FFT.h         ****     {
  60:FFT.h         ****         assert(real && imag && N > 0);
  61:FFT.h         **** 
  62:FFT.h         ****         // 1) bit reversal reorder
  63:FFT.h         ****         for (uint32_t i = 0; i < N; ++i) {
  64:FFT.h         ****             uint32_t j = bitrev[i];
  65:FFT.h         ****             if (j > i) {
  66:FFT.h         ****                 float tmp = real[i]; real[i] = real[j]; real[j] = tmp;
  67:FFT.h         ****                 tmp = imag[i]; imag[i] = imag[j]; imag[j] = tmp;
  68:FFT.h         ****             }
  69:FFT.h         ****         }
  70:FFT.h         **** 
  71:FFT.h         ****         // 2) iterative Cooley-Tukey
  72:FFT.h         ****         // sign: -1 for forward, +1 for inverse (we precomputed twiddles for sign=-1)
  73:FFT.h         ****         //const float sign = inverse ? 1.0f : -1.0f;
  74:FFT.h         **** 
  75:FFT.h         ****         uint32_t halfSize = 1;
  76:FFT.h         ****         for (uint32_t stage = 1; stage <= (uint32_t)log2N; ++stage) {
  77:FFT.h         ****             uint32_t step = halfSize << 1;               // current FFT length
  78:FFT.h         ****             // twiddle step: index increment for twiddle table
  79:FFT.h         ****             uint32_t twStep = N / step;                  // how many twiddle indices between succes
  80:FFT.h         ****             for (uint32_t i = 0; i < N; i += step) {
  81:FFT.h         ****                 uint32_t twIndex = 0;
  82:FFT.h         ****                 for (uint32_t j = 0; j < halfSize; ++j) {
  83:FFT.h         ****                     // get twiddle (cos, sin) for index twIndex
ARM GAS  /var/folders/5f/72p4brfx5932kssh4q_5ly0m0000gn/T//cc7WxlGd.s 			page 26


  84:FFT.h         ****                     float wr = twiddles[2 * twIndex + 0];
  85:FFT.h         ****                     float wi = twiddles[2 * twIndex + 1];
  86:FFT.h         ****                     // if inverse, conjugate the twiddle (flip sign of sin)
  87:FFT.h         ****                     if (inverse) wi = -wi;
  88:FFT.h         **** 
  89:FFT.h         ****                     // butterfly: a = x[i+j], b = x[i+j+halfSize] * w
  90:FFT.h         ****                     uint32_t idxA = i + j;
  91:FFT.h         ****                     uint32_t idxB = i + j + halfSize;
  92:FFT.h         ****                     float ar = real[idxA];
  93:FFT.h         ****                     float ai = imag[idxA];
  94:FFT.h         ****                     float br = real[idxB];
  95:FFT.h         ****                     float bi = imag[idxB];
  96:FFT.h         **** 
  97:FFT.h         ****                     // complex multiply b * w
  98:FFT.h         ****                     float tr = br * wr - bi * wi;
  99:FFT.h         ****                     float ti = br * wi + bi * wr;
 100:FFT.h         **** 
 101:FFT.h         ****                     // combine
 102:FFT.h         ****                     real[idxA] = ar + tr;
 103:FFT.h         ****                     imag[idxA] = ai + ti;
 104:FFT.h         ****                     real[idxB] = ar - tr;
 105:FFT.h         ****                     imag[idxB] = ai - ti;
 106:FFT.h         **** 
 107:FFT.h         ****                     twIndex += twStep;
 108:FFT.h         ****                 }
 109:FFT.h         ****             }
 110:FFT.h         ****             halfSize = step;
 111:FFT.h         ****         }
 112:FFT.h         **** 
 113:FFT.h         ****         // scale for inverse FFT
 114:FFT.h         ****         if (inverse) {
 115:FFT.h         ****             float invN = 1.0f / float(N);
 116:FFT.h         ****             for (uint32_t i = 0; i < N; ++i) {
 117:FFT.h         ****                 real[i] *= invN;
 118:FFT.h         ****                 imag[i] *= invN;
 119:FFT.h         ****             }
 120:FFT.h         ****         }
 121:FFT.h         ****     }
 122:FFT.h         **** 
 123:FFT.h         ****     // Simple real-FFT wrapper
 124:FFT.h         ****     // inputReal length N -> outputComplexReal/Imag arrays length N/2+1 (DC..Nyquist)
 125:FFT.h         ****     // This implementation performs an N-point complex FFT with imag=0 then returns k=0..N/2
 126:FFT.h         ****     // Not the most optimized real-FFT, but simple and robust.
 127:FFT.h         ****     void realFft(const float* inputReal, float* outReal, float* outImag) 
 128:FFT.h         ****     {
 129:FFT.h         ****         assert(inputReal && outReal && outImag && N > 0);
 130:FFT.h         ****         // temporary buffers (caller may reuse real/imag arrays to avoid allocation)
 131:FFT.h         ****         // Here we allocate on heap once per class; for real-time systems you can provide external 
 132:FFT.h         ****         float* r = new float[N];
 133:FFT.h         ****         float* i = new float[N];
 134:FFT.h         ****         for (uint32_t k = 0; k < N; ++k) { r[k] = inputReal[k]; i[k] = 0.0f; }
 135:FFT.h         **** 
 136:FFT.h         ****         fft(r, i, false);
 137:FFT.h         **** 
 138:FFT.h         ****         // copy k=0..N/2
 139:FFT.h         ****         uint32_t half = N/2;
 140:FFT.h         ****         for (uint32_t k = 0; k <= half; ++k) {
ARM GAS  /var/folders/5f/72p4brfx5932kssh4q_5ly0m0000gn/T//cc7WxlGd.s 			page 27


 141:FFT.h         ****             outReal[k] = r[k];
 142:FFT.h         ****             outImag[k] = i[k];
 143:FFT.h         ****         }
 144:FFT.h         **** 
 145:FFT.h         ****         delete [] r;
 146:FFT.h         ****         delete [] i;
 147:FFT.h         ****     }
 148:FFT.h         **** 
 149:FFT.h         ****     // Free buffers
 150:FFT.h         ****     void freeBuffers() 
 267              		.loc 18 150 10 is_stmt 1 view .LVU61
 268              	.LBB437:
 151:FFT.h         ****     {
 152:FFT.h         ****         if (twiddles) { delete [] twiddles; twiddles = nullptr; }
 269              		.loc 18 152 9 view .LVU62
 270              		.loc 18 152 13 is_stmt 0 view .LVU63
 271 0004 8068     		ldr	r0, [r0, #8]
 272              	.LVL7:
 273              		.loc 18 152 9 view .LVU64
 274 0006 18B1     		cbz	r0, .L11
 275              		.loc 18 152 25 is_stmt 1 view .LVU65
 276              		.loc 18 152 35 is_stmt 0 view .LVU66
 277 0008 FFF7FEFF 		bl	_ZdaPv
 278              	.LVL8:
 279              		.loc 18 152 45 is_stmt 1 view .LVU67
 280              		.loc 18 152 54 is_stmt 0 view .LVU68
 281 000c 0023     		movs	r3, #0
 282 000e A360     		str	r3, [r4, #8]
 283              	.L11:
 153:FFT.h         ****         if (bitrev)   { delete [] bitrev; bitrev = nullptr; }
 284              		.loc 18 153 9 is_stmt 1 view .LVU69
 285              		.loc 18 153 13 is_stmt 0 view .LVU70
 286 0010 E068     		ldr	r0, [r4, #12]
 287              		.loc 18 153 9 view .LVU71
 288 0012 08B1     		cbz	r0, .L12
 289              		.loc 18 153 25 is_stmt 1 view .LVU72
 290              		.loc 18 153 35 is_stmt 0 view .LVU73
 291 0014 FFF7FEFF 		bl	_ZdaPv
 292              	.LVL9:
 293              		.loc 18 153 43 is_stmt 1 view .LVU74
 294              	.L12:
 154:FFT.h         ****         N = 0; log2N = 0;
 295              		.loc 18 154 9 view .LVU75
 296              		.loc 18 154 16 view .LVU76
 297              		.loc 18 154 16 is_stmt 0 view .LVU77
 298              	.LBE437:
 299              	.LBE436:
  27:FFT.h         **** 
 300              		.loc 18 27 29 view .LVU78
 301 0018 2046     		mov	r0, r4
 302 001a 10BD     		pop	{r4, pc}
  27:FFT.h         **** 
 303              		.loc 18 27 29 view .LVU79
 304              		.cfi_endproc
 305              	.LFE4706:
 307              		.weak	_ZN3FFTD1Ev
 308              		.thumb_set _ZN3FFTD1Ev,_ZN3FFTD2Ev
ARM GAS  /var/folders/5f/72p4brfx5932kssh4q_5ly0m0000gn/T//cc7WxlGd.s 			page 28


 309              		.section	.text._ZN3FFT11freeBuffersEv,"axG",%progbits,_ZN3FFT11freeBuffersEv,comdat
 310              		.align	1
 311              		.p2align 2,,3
 312              		.weak	_ZN3FFT11freeBuffersEv
 313              		.syntax unified
 314              		.thumb
 315              		.thumb_func
 317              	_ZN3FFT11freeBuffersEv:
 318              	.LVL10:
 319              	.LFB4711:
 150:FFT.h         ****     {
 320              		.loc 18 150 10 is_stmt 1 view -0
 321              		.cfi_startproc
 322              		@ args = 0, pretend = 0, frame = 0
 323              		@ frame_needed = 0, uses_anonymous_args = 0
 152:FFT.h         ****         if (bitrev)   { delete [] bitrev; bitrev = nullptr; }
 324              		.loc 18 152 9 view .LVU81
 150:FFT.h         ****     {
 325              		.loc 18 150 10 is_stmt 0 view .LVU82
 326 0000 10B5     		push	{r4, lr}
 327              		.cfi_def_cfa_offset 8
 328              		.cfi_offset 4, -8
 329              		.cfi_offset 14, -4
 150:FFT.h         ****     {
 330              		.loc 18 150 10 view .LVU83
 331 0002 0446     		mov	r4, r0
 152:FFT.h         ****         if (bitrev)   { delete [] bitrev; bitrev = nullptr; }
 332              		.loc 18 152 13 view .LVU84
 333 0004 8068     		ldr	r0, [r0, #8]
 334              	.LVL11:
 152:FFT.h         ****         if (bitrev)   { delete [] bitrev; bitrev = nullptr; }
 335              		.loc 18 152 9 view .LVU85
 336 0006 18B1     		cbz	r0, .L21
 152:FFT.h         ****         if (bitrev)   { delete [] bitrev; bitrev = nullptr; }
 337              		.loc 18 152 25 is_stmt 1 discriminator 2 view .LVU86
 152:FFT.h         ****         if (bitrev)   { delete [] bitrev; bitrev = nullptr; }
 338              		.loc 18 152 35 is_stmt 0 discriminator 2 view .LVU87
 339 0008 FFF7FEFF 		bl	_ZdaPv
 340              	.LVL12:
 152:FFT.h         ****         if (bitrev)   { delete [] bitrev; bitrev = nullptr; }
 341              		.loc 18 152 45 is_stmt 1 discriminator 2 view .LVU88
 152:FFT.h         ****         if (bitrev)   { delete [] bitrev; bitrev = nullptr; }
 342              		.loc 18 152 54 is_stmt 0 discriminator 2 view .LVU89
 343 000c 0023     		movs	r3, #0
 344 000e A360     		str	r3, [r4, #8]
 345              	.L21:
 153:FFT.h         ****         N = 0; log2N = 0;
 346              		.loc 18 153 9 is_stmt 1 view .LVU90
 153:FFT.h         ****         N = 0; log2N = 0;
 347              		.loc 18 153 13 is_stmt 0 view .LVU91
 348 0010 E068     		ldr	r0, [r4, #12]
 153:FFT.h         ****         N = 0; log2N = 0;
 349              		.loc 18 153 9 view .LVU92
 350 0012 18B1     		cbz	r0, .L22
 153:FFT.h         ****         N = 0; log2N = 0;
 351              		.loc 18 153 25 is_stmt 1 discriminator 2 view .LVU93
 153:FFT.h         ****         N = 0; log2N = 0;
ARM GAS  /var/folders/5f/72p4brfx5932kssh4q_5ly0m0000gn/T//cc7WxlGd.s 			page 29


 352              		.loc 18 153 35 is_stmt 0 discriminator 2 view .LVU94
 353 0014 FFF7FEFF 		bl	_ZdaPv
 354              	.LVL13:
 153:FFT.h         ****         N = 0; log2N = 0;
 355              		.loc 18 153 43 is_stmt 1 discriminator 2 view .LVU95
 153:FFT.h         ****         N = 0; log2N = 0;
 356              		.loc 18 153 50 is_stmt 0 discriminator 2 view .LVU96
 357 0018 0023     		movs	r3, #0
 358 001a E360     		str	r3, [r4, #12]
 359              	.L22:
 360              		.loc 18 154 9 is_stmt 1 view .LVU97
 361              		.loc 18 154 11 is_stmt 0 view .LVU98
 362 001c 0023     		movs	r3, #0
 363              		.loc 18 154 22 view .LVU99
 364 001e C4E90033 		strd	r3, r3, [r4]
 155:FFT.h         ****     }
 365              		.loc 18 155 5 view .LVU100
 366 0022 10BD     		pop	{r4, pc}
 367              		.loc 18 155 5 view .LVU101
 368              		.cfi_endproc
 369              	.LFE4711:
 371              		.section	.text._ZN14WindowFunction19computeCoefficientsEv,"axG",%progbits,_ZN14WindowFunction19com
 372              		.align	1
 373              		.p2align 2,,3
 374              		.weak	_ZN14WindowFunction19computeCoefficientsEv
 375              		.syntax unified
 376              		.thumb
 377              		.thumb_func
 379              	_ZN14WindowFunction19computeCoefficientsEv:
 380              	.LVL14:
 381              	.LFB4728:
  29:Window.h      ****     }
  30:Window.h      **** 
  31:Window.h      ****     inline void apply(float* buffer)
  32:Window.h      ****     {
  33:Window.h      ****         for (uint16_t i = 0; i < N; i++)
  34:Window.h      ****             buffer[i] *= coeffs[i];
  35:Window.h      ****     }
  36:Window.h      **** 
  37:Window.h      ****     inline void setWindow(WindowType type)
  38:Window.h      ****     {
  39:Window.h      ****         winType = type;
  40:Window.h      ****         computeCoefficients();
  41:Window.h      ****     }
  42:Window.h      **** 
  43:Window.h      ****     inline WindowType getWindow() const { return winType; }
  44:Window.h      **** 
  45:Window.h      **** private:
  46:Window.h      ****     uint16_t N;
  47:Window.h      ****     WindowType winType;
  48:Window.h      ****     float* coeffs;
  49:Window.h      **** 
  50:Window.h      ****     void computeCoefficients()
 382              		.loc 17 50 10 is_stmt 1 view -0
 383              		.cfi_startproc
 384              		@ args = 0, pretend = 0, frame = 0
 385              		@ frame_needed = 0, uses_anonymous_args = 0
ARM GAS  /var/folders/5f/72p4brfx5932kssh4q_5ly0m0000gn/T//cc7WxlGd.s 			page 30


  51:Window.h      ****     {
  52:Window.h      ****         switch (winType)
 386              		.loc 17 52 9 view .LVU103
 387 0000 8378     		ldrb	r3, [r0, #2]	@ zero_extendqisi2
  50:Window.h      ****     {
 388              		.loc 17 50 10 is_stmt 0 view .LVU104
 389 0002 70B5     		push	{r4, r5, r6, lr}
 390              		.cfi_def_cfa_offset 16
 391              		.cfi_offset 4, -16
 392              		.cfi_offset 5, -12
 393              		.cfi_offset 6, -8
 394              		.cfi_offset 14, -4
 395 0004 2DED048B 		vpush.64	{d8, d9}
 396              		.cfi_def_cfa_offset 32
 397              		.cfi_offset 80, -32
 398              		.cfi_offset 81, -28
 399              		.cfi_offset 82, -24
 400              		.cfi_offset 83, -20
 401              		.loc 17 52 9 view .LVU105
 402 0008 052B     		cmp	r3, #5
 403 000a 1FD8     		bhi	.L30
 404 000c DFE803F0 		tbb	[pc, r3]
 405              	.L33:
 406 0010 21       		.byte	(.L38-.L33)/2
 407 0011 35       		.byte	(.L37-.L33)/2
 408 0012 5C       		.byte	(.L36-.L33)/2
 409 0013 81       		.byte	(.L35-.L33)/2
 410 0014 B4       		.byte	(.L34-.L33)/2
 411 0015 03       		.byte	(.L32-.L33)/2
 412              		.p2align 1
 413              	.L32:
  53:Window.h      ****         {
  54:Window.h      ****             case RECTANGULAR: computeRectangular(); break;
  55:Window.h      ****             case HAMMING:     computeHamming();     break;
  56:Window.h      ****             case HANNING:     computeHanning();     break;
  57:Window.h      ****             case BLACKMAN:    computeBlackman();    break;
  58:Window.h      ****             case TRIANGULAR:  computeTriangular();  break;
  59:Window.h      ****             case WELCH:       computeWelch();       break;
 414              		.loc 17 59 13 is_stmt 1 view .LVU106
 415              		.loc 17 59 31 view .LVU107
 416              	.LVL15:
 417              	.LBB463:
 418              	.LBI463:
  60:Window.h      ****         }
  61:Window.h      ****     }
  62:Window.h      **** 
  63:Window.h      ****     void computeRectangular()
  64:Window.h      ****     {
  65:Window.h      ****         for (uint16_t i = 0; i < N; i++)
  66:Window.h      ****             coeffs[i] = 1.0f;
  67:Window.h      ****     }
  68:Window.h      **** 
  69:Window.h      ****     void computeHamming()
  70:Window.h      ****     {
  71:Window.h      ****         for (uint16_t i = 0; i < N; i++)
  72:Window.h      ****             coeffs[i] = 0.53836f - 0.46164f * cosf(2.0f * M_PI * i / (float)(N - 1));
  73:Window.h      ****     }
ARM GAS  /var/folders/5f/72p4brfx5932kssh4q_5ly0m0000gn/T//cc7WxlGd.s 			page 31


  74:Window.h      **** 
  75:Window.h      ****     void computeHanning()
  76:Window.h      ****     {
  77:Window.h      ****         for (uint16_t i = 0; i < N; i++)
  78:Window.h      ****             coeffs[i] = 0.5f - 0.5f * cosf(2.0f * M_PI * i / (float)(N - 1));
  79:Window.h      ****     }
  80:Window.h      **** 
  81:Window.h      ****     void computeBlackman()
  82:Window.h      ****     {
  83:Window.h      ****         const float a0 = 0.42f;
  84:Window.h      ****         const float a1 = 0.5f;
  85:Window.h      ****         const float a2 = 0.08f;
  86:Window.h      ****         for (uint16_t i = 0; i < N; i++)
  87:Window.h      ****         {
  88:Window.h      ****             float w = 2.0f * M_PI * i / (float)(N - 1);
  89:Window.h      ****             coeffs[i] = a0 - a1 * cosf(w) + a2 * cosf(2.0f * w);
  90:Window.h      ****         }
  91:Window.h      ****     }
  92:Window.h      **** 
  93:Window.h      ****     void computeTriangular()
  94:Window.h      ****     {
  95:Window.h      ****         // Symmetric Bartlett window
  96:Window.h      ****         for (uint16_t i = 0; i < N; i++)
  97:Window.h      ****         {
  98:Window.h      ****             coeffs[i] = 1.0f - fabsf((i - (N - 1) / 2.0f) / (float)((N - 1) / 2.0f));
  99:Window.h      ****         }
 100:Window.h      ****     }
 101:Window.h      **** 
 102:Window.h      ****     void computeWelch()
 419              		.loc 17 102 10 view .LVU108
 420              	.LBB464:
 103:Window.h      ****     {
 104:Window.h      ****         // 1 - ((i - center)/center)^2
 105:Window.h      ****         float center = (N - 1) / 2.0f;
 421              		.loc 17 105 9 view .LVU109
 422              		.loc 17 105 25 is_stmt 0 view .LVU110
 423 0016 0488     		ldrh	r4, [r0]
 424              		.loc 17 105 27 view .LVU111
 425 0018 631E     		subs	r3, r4, #1
 426 001a 06EE103A 		vmov	s12, r3	@ int
 427              		.loc 17 105 15 view .LVU112
 428 001e BAEEEF6A 		vcvt.f32.s32	s12, s12, #1
 429              	.LVL16:
 106:Window.h      ****         for (uint16_t i = 0; i < N; i++)
 430              		.loc 17 106 9 is_stmt 1 view .LVU113
 431              	.LBB465:
 432              		.loc 17 106 32 view .LVU114
 433 0022 9CB1     		cbz	r4, .L30
 434 0024 4268     		ldr	r2, [r0, #4]
 435              	.LBB466:
 107:Window.h      ****         {
 108:Window.h      ****             float x = (i - center) / center;
 109:Window.h      ****             coeffs[i] = 1.0f - x * x;
 436              		.loc 17 109 13 is_stmt 0 view .LVU115
 437 0026 0023     		movs	r3, #0
 438              	.LVL17:
 439              	.L46:
ARM GAS  /var/folders/5f/72p4brfx5932kssh4q_5ly0m0000gn/T//cc7WxlGd.s 			page 32


 108:Window.h      ****             coeffs[i] = 1.0f - x * x;
 440              		.loc 17 108 13 is_stmt 1 view .LVU116
 108:Window.h      ****             coeffs[i] = 1.0f - x * x;
 441              		.loc 17 108 26 is_stmt 0 view .LVU117
 442 0028 07EE903A 		vmov	s15, r3	@ int
 443              	.LBE466:
 106:Window.h      ****         for (uint16_t i = 0; i < N; i++)
 444              		.loc 17 106 32 view .LVU118
 445 002c 0133     		adds	r3, r3, #1
 446              	.LVL18:
 447              	.LBB467:
 108:Window.h      ****             coeffs[i] = 1.0f - x * x;
 448              		.loc 17 108 26 view .LVU119
 449 002e B8EEE77A 		vcvt.f32.s32	s14, s15
 450              	.LBE467:
 106:Window.h      ****         for (uint16_t i = 0; i < N; i++)
 451              		.loc 17 106 32 view .LVU120
 452 0032 99B2     		uxth	r1, r3
 453              	.LBB468:
 454              		.loc 17 109 30 view .LVU121
 455 0034 F7EE007A 		vmov.f32	s15, #1.0e+0
 456              	.LBE468:
 106:Window.h      ****         for (uint16_t i = 0; i < N; i++)
 457              		.loc 17 106 32 view .LVU122
 458 0038 A142     		cmp	r1, r4
 459              	.LBB469:
 108:Window.h      ****             coeffs[i] = 1.0f - x * x;
 460              		.loc 17 108 26 view .LVU123
 461 003a 37EE467A 		vsub.f32	s14, s14, s12
 108:Window.h      ****             coeffs[i] = 1.0f - x * x;
 462              		.loc 17 108 19 view .LVU124
 463 003e C7EE066A 		vdiv.f32	s13, s14, s12
 464              	.LVL19:
 465              		.loc 17 109 13 is_stmt 1 view .LVU125
 466              		.loc 17 109 30 is_stmt 0 view .LVU126
 467 0042 E6EEE67A 		vfms.f32	s15, s13, s13
 468              		.loc 17 109 23 view .LVU127
 469 0046 E2EC017A 		vstmia.32	r2!, {s15}
 470              	.LBE469:
 106:Window.h      ****         for (uint16_t i = 0; i < N; i++)
 471              		.loc 17 106 9 is_stmt 1 view .LVU128
 106:Window.h      ****         for (uint16_t i = 0; i < N; i++)
 472              		.loc 17 106 32 view .LVU129
 473 004a EDD3     		bcc	.L46
 474              	.LVL20:
 475              	.L30:
 106:Window.h      ****         for (uint16_t i = 0; i < N; i++)
 476              		.loc 17 106 32 is_stmt 0 view .LVU130
 477              	.LBE465:
 478              	.LBE464:
 479              	.LBE463:
  61:Window.h      **** 
 480              		.loc 17 61 5 view .LVU131
 481 004c BDEC048B 		vldm	sp!, {d8-d9}
 482              		.cfi_remember_state
 483              		.cfi_restore 82
 484              		.cfi_restore 83
ARM GAS  /var/folders/5f/72p4brfx5932kssh4q_5ly0m0000gn/T//cc7WxlGd.s 			page 33


 485              		.cfi_restore 80
 486              		.cfi_restore 81
 487              		.cfi_def_cfa_offset 16
 488 0050 70BD     		pop	{r4, r5, r6, pc}
 489              	.L38:
 490              		.cfi_restore_state
 491              	.LVL21:
 492              	.LBB470:
 493              	.LBB471:
 494              	.LBB472:
  65:Window.h      ****             coeffs[i] = 1.0f;
 495              		.loc 17 65 32 is_stmt 1 view .LVU132
  65:Window.h      ****             coeffs[i] = 1.0f;
 496              		.loc 17 65 34 is_stmt 0 view .LVU133
 497 0052 0388     		ldrh	r3, [r0]
  65:Window.h      ****             coeffs[i] = 1.0f;
 498              		.loc 17 65 32 view .LVU134
 499 0054 002B     		cmp	r3, #0
 500 0056 F9D0     		beq	.L30
 501 0058 4268     		ldr	r2, [r0, #4]
 502 005a 581E     		subs	r0, r3, #1
 503              	.LVL22:
  65:Window.h      ****             coeffs[i] = 1.0f;
 504              		.loc 17 65 32 view .LVU135
 505 005c 131D     		adds	r3, r2, #4
 506 005e 80B2     		uxth	r0, r0
 507 0060 03EB8000 		add	r0, r3, r0, lsl #2
 508              	.LVL23:
 509              	.L41:
  66:Window.h      ****     }
 510              		.loc 17 66 13 is_stmt 1 view .LVU136
  66:Window.h      ****     }
 511              		.loc 17 66 23 is_stmt 0 view .LVU137
 512 0064 4FF07E51 		mov	r1, #1065353216
  65:Window.h      ****             coeffs[i] = 1.0f;
 513              		.loc 17 65 32 view .LVU138
 514 0068 9842     		cmp	r0, r3
  66:Window.h      ****     }
 515              		.loc 17 66 23 view .LVU139
 516 006a 1160     		str	r1, [r2]	@ float
 517 006c 1A46     		mov	r2, r3
 518              	.LVL24:
  65:Window.h      ****             coeffs[i] = 1.0f;
 519              		.loc 17 65 9 is_stmt 1 view .LVU140
  65:Window.h      ****             coeffs[i] = 1.0f;
 520              		.loc 17 65 32 view .LVU141
 521 006e 03F10403 		add	r3, r3, #4
 522 0072 F7D1     		bne	.L41
 523              	.LBE472:
 524              	.LBE471:
 525              	.LBE470:
  61:Window.h      **** 
 526              		.loc 17 61 5 is_stmt 0 view .LVU142
 527 0074 BDEC048B 		vldm	sp!, {d8-d9}
 528              		.cfi_remember_state
 529              		.cfi_restore 82
 530              		.cfi_restore 83
ARM GAS  /var/folders/5f/72p4brfx5932kssh4q_5ly0m0000gn/T//cc7WxlGd.s 			page 34


 531              		.cfi_restore 80
 532              		.cfi_restore 81
 533              		.cfi_def_cfa_offset 16
 534 0078 70BD     		pop	{r4, r5, r6, pc}
 535              	.LVL25:
 536              	.L37:
 537              		.cfi_restore_state
 538              	.LBB473:
 539              	.LBB474:
  71:Window.h      ****             coeffs[i] = 0.53836f - 0.46164f * cosf(2.0f * M_PI * i / (float)(N - 1));
 540              		.loc 17 71 32 is_stmt 1 view .LVU143
  71:Window.h      ****             coeffs[i] = 0.53836f - 0.46164f * cosf(2.0f * M_PI * i / (float)(N - 1));
 541              		.loc 17 71 34 is_stmt 0 view .LVU144
 542 007a 0688     		ldrh	r6, [r0]
  71:Window.h      ****             coeffs[i] = 0.53836f - 0.46164f * cosf(2.0f * M_PI * i / (float)(N - 1));
 543              		.loc 17 71 32 view .LVU145
 544 007c 002E     		cmp	r6, #0
 545 007e E5D0     		beq	.L30
  72:Window.h      ****     }
 546              		.loc 17 72 80 view .LVU146
 547 0080 731E     		subs	r3, r6, #1
 548 0082 4568     		ldr	r5, [r0, #4]
  72:Window.h      ****     }
 549              		.loc 17 72 70 view .LVU147
 550 0084 0024     		movs	r4, #0
 551 0086 07EE903A 		vmov	s15, r3	@ int
 552 008a B8EEE78B 		vcvt.f64.s32	d8, s15
 553              	.LVL26:
 554              	.L42:
  72:Window.h      ****     }
 555              		.loc 17 72 13 is_stmt 1 view .LVU148
  72:Window.h      ****     }
 556              		.loc 17 72 64 is_stmt 0 view .LVU149
 557 008e 07EE904A 		vmov	s15, r4	@ int
  71:Window.h      ****             coeffs[i] = 0.53836f - 0.46164f * cosf(2.0f * M_PI * i / (float)(N - 1));
 558              		.loc 17 71 32 view .LVU150
 559 0092 0134     		adds	r4, r4, #1
 560              	.LVL27:
  72:Window.h      ****     }
 561              		.loc 17 72 64 view .LVU151
 562 0094 9FED4A6B 		vldr.64	d6, .L67
 563 0098 B8EEE77B 		vcvt.f64.s32	d7, s15
 564 009c 27EE067B 		vmul.f64	d7, d7, d6
  72:Window.h      ****     }
 565              		.loc 17 72 68 view .LVU152
 566 00a0 87EE080B 		vdiv.f64	d0, d7, d8
  72:Window.h      ****     }
 567              		.loc 17 72 51 view .LVU153
 568 00a4 B7EEC00B 		vcvt.f32.f64	s0, d0
 569 00a8 FFF7FEFF 		bl	cosf
 570              	.LVL28:
  72:Window.h      ****     }
 571              		.loc 17 72 34 view .LVU154
 572 00ac 9FED467A 		vldr.32	s14, .L67+8
 573 00b0 DFED467A 		vldr.32	s15, .L67+12
  71:Window.h      ****             coeffs[i] = 0.53836f - 0.46164f * cosf(2.0f * M_PI * i / (float)(N - 1));
 574              		.loc 17 71 32 view .LVU155
ARM GAS  /var/folders/5f/72p4brfx5932kssh4q_5ly0m0000gn/T//cc7WxlGd.s 			page 35


 575 00b4 A3B2     		uxth	r3, r4
  72:Window.h      ****     }
 576              		.loc 17 72 34 view .LVU156
 577 00b6 E0EE477A 		vfms.f32	s15, s0, s14
  71:Window.h      ****             coeffs[i] = 0.53836f - 0.46164f * cosf(2.0f * M_PI * i / (float)(N - 1));
 578              		.loc 17 71 32 view .LVU157
 579 00ba 9E42     		cmp	r6, r3
  72:Window.h      ****     }
 580              		.loc 17 72 23 view .LVU158
 581 00bc E5EC017A 		vstmia.32	r5!, {s15}
  71:Window.h      ****             coeffs[i] = 0.53836f - 0.46164f * cosf(2.0f * M_PI * i / (float)(N - 1));
 582              		.loc 17 71 9 is_stmt 1 view .LVU159
  71:Window.h      ****             coeffs[i] = 0.53836f - 0.46164f * cosf(2.0f * M_PI * i / (float)(N - 1));
 583              		.loc 17 71 32 view .LVU160
 584 00c0 E5D8     		bhi	.L42
 585              	.LBE474:
 586              	.LBE473:
  61:Window.h      **** 
 587              		.loc 17 61 5 is_stmt 0 view .LVU161
 588 00c2 BDEC048B 		vldm	sp!, {d8-d9}
 589              		.cfi_remember_state
 590              		.cfi_restore 82
 591              		.cfi_restore 83
 592              		.cfi_restore 80
 593              		.cfi_restore 81
 594              		.cfi_def_cfa_offset 16
 595 00c6 70BD     		pop	{r4, r5, r6, pc}
 596              	.LVL29:
 597              	.L36:
 598              		.cfi_restore_state
 599              	.LBB477:
 600              	.LBB478:
  77:Window.h      ****             coeffs[i] = 0.5f - 0.5f * cosf(2.0f * M_PI * i / (float)(N - 1));
 601              		.loc 17 77 32 is_stmt 1 view .LVU162
  77:Window.h      ****             coeffs[i] = 0.5f - 0.5f * cosf(2.0f * M_PI * i / (float)(N - 1));
 602              		.loc 17 77 34 is_stmt 0 view .LVU163
 603 00c8 0688     		ldrh	r6, [r0]
  77:Window.h      ****             coeffs[i] = 0.5f - 0.5f * cosf(2.0f * M_PI * i / (float)(N - 1));
 604              		.loc 17 77 32 view .LVU164
 605 00ca 002E     		cmp	r6, #0
 606 00cc BED0     		beq	.L30
 607              	.LBE478:
 608              	.LBE477:
 609              	.LBB480:
 610              	.LBB475:
  72:Window.h      ****     }
 611              		.loc 17 72 80 view .LVU165
 612 00ce 731E     		subs	r3, r6, #1
 613 00d0 4568     		ldr	r5, [r0, #4]
  72:Window.h      ****     }
 614              		.loc 17 72 70 view .LVU166
 615 00d2 0024     		movs	r4, #0
 616 00d4 07EE903A 		vmov	s15, r3	@ int
 617 00d8 B8EEE78B 		vcvt.f64.s32	d8, s15
 618              	.LVL30:
 619              	.L43:
  72:Window.h      ****     }
ARM GAS  /var/folders/5f/72p4brfx5932kssh4q_5ly0m0000gn/T//cc7WxlGd.s 			page 36


 620              		.loc 17 72 70 view .LVU167
 621              	.LBE475:
 622              	.LBE480:
 623              	.LBB481:
 624              	.LBB479:
  78:Window.h      ****     }
 625              		.loc 17 78 13 is_stmt 1 view .LVU168
  78:Window.h      ****     }
 626              		.loc 17 78 56 is_stmt 0 view .LVU169
 627 00dc 07EE904A 		vmov	s15, r4	@ int
  77:Window.h      ****             coeffs[i] = 0.5f - 0.5f * cosf(2.0f * M_PI * i / (float)(N - 1));
 628              		.loc 17 77 32 view .LVU170
 629 00e0 0134     		adds	r4, r4, #1
 630              	.LVL31:
  78:Window.h      ****     }
 631              		.loc 17 78 56 view .LVU171
 632 00e2 9FED376B 		vldr.64	d6, .L67
 633 00e6 B8EEE77B 		vcvt.f64.s32	d7, s15
 634 00ea 27EE067B 		vmul.f64	d7, d7, d6
  78:Window.h      ****     }
 635              		.loc 17 78 60 view .LVU172
 636 00ee 87EE080B 		vdiv.f64	d0, d7, d8
  78:Window.h      ****     }
 637              		.loc 17 78 43 view .LVU173
 638 00f2 B7EEC00B 		vcvt.f32.f64	s0, d0
 639 00f6 FFF7FEFF 		bl	cosf
 640              	.LVL32:
  78:Window.h      ****     }
 641              		.loc 17 78 30 view .LVU174
 642 00fa F6EE007A 		vmov.f32	s15, #5.0e-1
  77:Window.h      ****             coeffs[i] = 0.5f - 0.5f * cosf(2.0f * M_PI * i / (float)(N - 1));
 643              		.loc 17 77 32 view .LVU175
 644 00fe A3B2     		uxth	r3, r4
  78:Window.h      ****     }
 645              		.loc 17 78 30 view .LVU176
 646 0100 E0EE677A 		vfms.f32	s15, s0, s15
  77:Window.h      ****             coeffs[i] = 0.5f - 0.5f * cosf(2.0f * M_PI * i / (float)(N - 1));
 647              		.loc 17 77 32 view .LVU177
 648 0104 9E42     		cmp	r6, r3
  78:Window.h      ****     }
 649              		.loc 17 78 23 view .LVU178
 650 0106 E5EC017A 		vstmia.32	r5!, {s15}
  77:Window.h      ****             coeffs[i] = 0.5f - 0.5f * cosf(2.0f * M_PI * i / (float)(N - 1));
 651              		.loc 17 77 9 is_stmt 1 view .LVU179
  77:Window.h      ****             coeffs[i] = 0.5f - 0.5f * cosf(2.0f * M_PI * i / (float)(N - 1));
 652              		.loc 17 77 32 view .LVU180
 653 010a E7D8     		bhi	.L43
 654              	.LBE479:
 655              	.LBE481:
  61:Window.h      **** 
 656              		.loc 17 61 5 is_stmt 0 view .LVU181
 657 010c BDEC048B 		vldm	sp!, {d8-d9}
 658              		.cfi_remember_state
 659              		.cfi_restore 82
 660              		.cfi_restore 83
 661              		.cfi_restore 80
 662              		.cfi_restore 81
ARM GAS  /var/folders/5f/72p4brfx5932kssh4q_5ly0m0000gn/T//cc7WxlGd.s 			page 37


 663              		.cfi_def_cfa_offset 16
 664 0110 70BD     		pop	{r4, r5, r6, pc}
 665              	.LVL33:
 666              	.L35:
 667              		.cfi_restore_state
 668              	.LBB482:
 669              	.LBB483:
 670              	.LBB484:
  86:Window.h      ****         {
 671              		.loc 17 86 32 is_stmt 1 view .LVU182
  86:Window.h      ****         {
 672              		.loc 17 86 34 is_stmt 0 view .LVU183
 673 0112 0688     		ldrh	r6, [r0]
  86:Window.h      ****         {
 674              		.loc 17 86 32 view .LVU184
 675 0114 002E     		cmp	r6, #0
 676 0116 99D0     		beq	.L30
 677              	.LBE484:
 678              	.LBE483:
 679              	.LBE482:
 680              	.LBB490:
 681              	.LBB476:
  72:Window.h      ****     }
 682              		.loc 17 72 80 view .LVU185
 683 0118 731E     		subs	r3, r6, #1
 684 011a 4568     		ldr	r5, [r0, #4]
  72:Window.h      ****     }
 685              		.loc 17 72 70 view .LVU186
 686 011c 0024     		movs	r4, #0
 687 011e 07EE903A 		vmov	s15, r3	@ int
 688 0122 B8EEE79B 		vcvt.f64.s32	d9, s15
 689              	.LVL34:
 690              	.L44:
  72:Window.h      ****     }
 691              		.loc 17 72 70 view .LVU187
 692              	.LBE476:
 693              	.LBE490:
 694              	.LBB491:
 695              	.LBB489:
 696              	.LBB488:
 697              	.LBB485:
  88:Window.h      ****             coeffs[i] = a0 - a1 * cosf(w) + a2 * cosf(2.0f * w);
 698              		.loc 17 88 13 is_stmt 1 view .LVU188
  88:Window.h      ****             coeffs[i] = a0 - a1 * cosf(w) + a2 * cosf(2.0f * w);
 699              		.loc 17 88 35 is_stmt 0 view .LVU189
 700 0126 07EE904A 		vmov	s15, r4	@ int
  89:Window.h      ****         }
 701              		.loc 17 89 28 view .LVU190
 702 012a 9FED298A 		vldr.32	s16, .L67+16
 703              	.LBE485:
  86:Window.h      ****         {
 704              		.loc 17 86 32 view .LVU191
 705 012e 0134     		adds	r4, r4, #1
 706              	.LVL35:
 707              	.LBB486:
  88:Window.h      ****             coeffs[i] = a0 - a1 * cosf(w) + a2 * cosf(2.0f * w);
 708              		.loc 17 88 35 view .LVU192
ARM GAS  /var/folders/5f/72p4brfx5932kssh4q_5ly0m0000gn/T//cc7WxlGd.s 			page 38


 709 0130 B8EEE77B 		vcvt.f64.s32	d7, s15
 710 0134 9FED226B 		vldr.64	d6, .L67
 711 0138 27EE067B 		vmul.f64	d7, d7, d6
  88:Window.h      ****             coeffs[i] = a0 - a1 * cosf(w) + a2 * cosf(2.0f * w);
 712              		.loc 17 88 39 view .LVU193
 713 013c 87EE090B 		vdiv.f64	d0, d7, d9
  88:Window.h      ****             coeffs[i] = a0 - a1 * cosf(w) + a2 * cosf(2.0f * w);
 714              		.loc 17 88 19 view .LVU194
 715 0140 F7EEC08B 		vcvt.f32.f64	s17, d0
 716              	.LVL36:
  89:Window.h      ****         }
 717              		.loc 17 89 13 is_stmt 1 view .LVU195
  89:Window.h      ****         }
 718              		.loc 17 89 39 is_stmt 0 view .LVU196
 719 0144 B0EE680A 		vmov.f32	s0, s17
 720 0148 FFF7FEFF 		bl	cosf
 721              	.LVL37:
  89:Window.h      ****         }
 722              		.loc 17 89 28 view .LVU197
 723 014c F6EE007A 		vmov.f32	s15, #5.0e-1
  89:Window.h      ****         }
 724              		.loc 17 89 39 view .LVU198
 725 0150 B0EE407A 		vmov.f32	s14, s0
  89:Window.h      ****         }
 726              		.loc 17 89 54 view .LVU199
 727 0154 38EEA80A 		vadd.f32	s0, s17, s17
  89:Window.h      ****         }
 728              		.loc 17 89 28 view .LVU200
 729 0158 A7EE678A 		vfms.f32	s16, s14, s15
  89:Window.h      ****         }
 730              		.loc 17 89 54 view .LVU201
 731 015c FFF7FEFF 		bl	cosf
 732              	.LVL38:
  89:Window.h      ****         }
 733              		.loc 17 89 43 view .LVU202
 734 0160 DFED1C7A 		vldr.32	s15, .L67+20
 735              	.LBE486:
  86:Window.h      ****         {
 736              		.loc 17 86 32 view .LVU203
 737 0164 A3B2     		uxth	r3, r4
 738 0166 9E42     		cmp	r6, r3
 739              	.LBB487:
  89:Window.h      ****         }
 740              		.loc 17 89 43 view .LVU204
 741 0168 A0EE278A 		vfma.f32	s16, s0, s15
  89:Window.h      ****         }
 742              		.loc 17 89 23 view .LVU205
 743 016c A5EC018A 		vstmia.32	r5!, {s16}
 744              	.LBE487:
  86:Window.h      ****         {
 745              		.loc 17 86 9 is_stmt 1 view .LVU206
  86:Window.h      ****         {
 746              		.loc 17 86 32 view .LVU207
 747 0170 D9D8     		bhi	.L44
 748              	.LBE488:
 749              	.LBE489:
 750              	.LBE491:
ARM GAS  /var/folders/5f/72p4brfx5932kssh4q_5ly0m0000gn/T//cc7WxlGd.s 			page 39


  61:Window.h      **** 
 751              		.loc 17 61 5 is_stmt 0 view .LVU208
 752 0172 BDEC048B 		vldm	sp!, {d8-d9}
 753              		.cfi_remember_state
 754              		.cfi_restore 82
 755              		.cfi_restore 83
 756              		.cfi_restore 80
 757              		.cfi_restore 81
 758              		.cfi_def_cfa_offset 16
 759 0176 70BD     		pop	{r4, r5, r6, pc}
 760              	.LVL39:
 761              	.L34:
 762              		.cfi_restore_state
 763              	.LBB492:
 764              	.LBB493:
  96:Window.h      ****         {
 765              		.loc 17 96 32 is_stmt 1 view .LVU209
  96:Window.h      ****         {
 766              		.loc 17 96 34 is_stmt 0 view .LVU210
 767 0178 0488     		ldrh	r4, [r0]
  96:Window.h      ****         {
 768              		.loc 17 96 32 view .LVU211
 769 017a 002C     		cmp	r4, #0
 770 017c 3FF466AF 		beq	.L30
  98:Window.h      ****         }
 771              		.loc 17 98 46 view .LVU212
 772 0180 621E     		subs	r2, r4, #1
 773 0182 4168     		ldr	r1, [r0, #4]
  98:Window.h      ****         }
 774              		.loc 17 98 13 view .LVU213
 775 0184 0023     		movs	r3, #0
  98:Window.h      ****         }
 776              		.loc 17 98 51 view .LVU214
 777 0186 06EE102A 		vmov	s12, r2	@ int
 778 018a BAEEEF6A 		vcvt.f32.s32	s12, s12, #1
 779              	.LVL40:
 780              	.L45:
  98:Window.h      ****         }
 781              		.loc 17 98 13 is_stmt 1 view .LVU215
  98:Window.h      ****         }
 782              		.loc 17 98 41 is_stmt 0 view .LVU216
 783 018e 07EE903A 		vmov	s15, r3	@ int
  96:Window.h      ****         {
 784              		.loc 17 96 32 view .LVU217
 785 0192 0133     		adds	r3, r3, #1
 786              	.LVL41:
  98:Window.h      ****         }
 787              		.loc 17 98 41 view .LVU218
 788 0194 F8EEE76A 		vcvt.f32.s32	s13, s15
  96:Window.h      ****         {
 789              		.loc 17 96 32 view .LVU219
 790 0198 9AB2     		uxth	r2, r3
  98:Window.h      ****         }
 791              		.loc 17 98 30 view .LVU220
 792 019a F7EE007A 		vmov.f32	s15, #1.0e+0
  96:Window.h      ****         {
 793              		.loc 17 96 32 view .LVU221
ARM GAS  /var/folders/5f/72p4brfx5932kssh4q_5ly0m0000gn/T//cc7WxlGd.s 			page 40


 794 019e 9442     		cmp	r4, r2
  98:Window.h      ****         }
 795              		.loc 17 98 41 view .LVU222
 796 01a0 76EEC66A 		vsub.f32	s13, s13, s12
  98:Window.h      ****         }
 797              		.loc 17 98 59 view .LVU223
 798 01a4 86EE867A 		vdiv.f32	s14, s13, s12
  98:Window.h      ****         }
 799              		.loc 17 98 37 view .LVU224
 800 01a8 B0EEC77A 		vabs.f32	s14, s14
  98:Window.h      ****         }
 801              		.loc 17 98 30 view .LVU225
 802 01ac 77EEC77A 		vsub.f32	s15, s15, s14
  98:Window.h      ****         }
 803              		.loc 17 98 23 view .LVU226
 804 01b0 E1EC017A 		vstmia.32	r1!, {s15}
  96:Window.h      ****         {
 805              		.loc 17 96 9 is_stmt 1 view .LVU227
  96:Window.h      ****         {
 806              		.loc 17 96 32 view .LVU228
 807 01b4 EBD8     		bhi	.L45
 808              	.LBE493:
 809              	.LBE492:
  61:Window.h      **** 
 810              		.loc 17 61 5 is_stmt 0 view .LVU229
 811 01b6 BDEC048B 		vldm	sp!, {d8-d9}
 812              		.cfi_restore 82
 813              		.cfi_restore 83
 814              		.cfi_restore 80
 815              		.cfi_restore 81
 816              		.cfi_def_cfa_offset 16
 817 01ba 70BD     		pop	{r4, r5, r6, pc}
 818              	.L68:
 819 01bc AFF30080 		.align	3
 820              	.L67:
 821 01c0 182D4454 		.word	1413754136
 822 01c4 FB211940 		.word	1075388923
 823 01c8 145CEC3E 		.word	1055677460
 824 01cc F6D1093F 		.word	1057608182
 825 01d0 3D0AD73E 		.word	1054280253
 826 01d4 0AD7A33D 		.word	1034147594
 827              		.cfi_endproc
 828              	.LFE4728:
 830              		.section	.rodata._ZN10FFTMonitor12processFrameEv.str1.4,"aMS",%progbits,1
 831              		.align	2
 832              	.LC0:
 833 0000 7265616C 		.ascii	"real && imag && N > 0\000"
 833      20262620 
 833      696D6167 
 833      20262620 
 833      4E203E20 
 834 0016 0000     		.align	2
 835              	.LC1:
 836 0018 766F6964 		.ascii	"void FFT::fft(float*, float*, bool)\000"
 836      20464654 
 836      3A3A6666 
 836      7428666C 
ARM GAS  /var/folders/5f/72p4brfx5932kssh4q_5ly0m0000gn/T//cc7WxlGd.s 			page 41


 836      6F61742A 
 837              		.align	2
 838              	.LC2:
 839 003c 4646542E 		.ascii	"FFT.h\000"
 839      6800
 840 0042 0000     		.align	2
 841              	.LC3:
 842 0044 23424547 		.ascii	"#BEGIN\000"
 842      494E00
 843 004b 00       		.align	2
 844              	.LC4:
 845 004c 46726571 		.ascii	"Frequency,Amplitude\000"
 845      75656E63 
 845      792C416D 
 845      706C6974 
 845      75646500 
 846              		.align	2
 847              	.LC5:
 848 0060 252E3166 		.ascii	"%.1f,%.6f\000"
 848      2C252E36 
 848      6600
 849 006a 0000     		.align	2
 850              	.LC6:
 851 006c 23454E44 		.ascii	"#END\000"
 851      00
 852              		.section	.text._ZN10FFTMonitor12processFrameEv,"axG",%progbits,_ZN10FFTMonitor12processFrameEv,com
 853              		.align	1
 854              		.p2align 2,,3
 855              		.weak	_ZN10FFTMonitor12processFrameEv
 856              		.syntax unified
 857              		.thumb
 858              		.thumb_func
 860              	_ZN10FFTMonitor12processFrameEv:
 861              	.LVL42:
 862              	.LFB4740:
  15:FFTMonitor.h  **** {
  16:FFTMonitor.h  **** 	int fftIdx;
  17:FFTMonitor.h  **** 	bool newBuffer;
  18:FFTMonitor.h  **** 	uint32_t  start, end, dur;
  19:FFTMonitor.h  ****     DaisyPod *pHWPod;
  20:FFTMonitor.h  ****     FFT *pFFT;
  21:FFTMonitor.h  **** 	WindowFunction win;
  22:FFTMonitor.h  **** 
  23:FFTMonitor.h  **** #ifndef USE_SDRAM
  24:FFTMonitor.h  **** 	float sampleBuffer[FFT_SIZE];
  25:FFTMonitor.h  **** 	float real[FFT_SIZE];
  26:FFTMonitor.h  **** 	float imag[FFT_SIZE];
  27:FFTMonitor.h  **** #endif
  28:FFTMonitor.h  **** 	float mag[FFT_SIZE/2 + 1];
  29:FFTMonitor.h  **** 
  30:FFTMonitor.h  **** public:
  31:FFTMonitor.h  ****     FFTMonitor(DaisyPod *hwPod, FFT *fft) : fftIdx(0), newBuffer(false), 
  32:FFTMonitor.h  **** 	                                        win(FFT_SIZE, WindowFunction::RECTANGULAR)	
  33:FFTMonitor.h  ****     {  
  34:FFTMonitor.h  ****         pHWPod = hwPod;
  35:FFTMonitor.h  ****         pFFT = fft;
  36:FFTMonitor.h  ****     };
ARM GAS  /var/folders/5f/72p4brfx5932kssh4q_5ly0m0000gn/T//cc7WxlGd.s 			page 42


  37:FFTMonitor.h  **** 
  38:FFTMonitor.h  **** 	void insertSample(float sample)
  39:FFTMonitor.h  **** 	{
  40:FFTMonitor.h  **** 		if (newBuffer)
  41:FFTMonitor.h  **** 			return; // skip samples until buffer is processed
  42:FFTMonitor.h  **** 
  43:FFTMonitor.h  **** 		sampleBuffer[fftIdx++] = sample;
  44:FFTMonitor.h  **** 		if (fftIdx >= FFT_SIZE)
  45:FFTMonitor.h  **** 		{
  46:FFTMonitor.h  **** 			fftIdx = 0;
  47:FFTMonitor.h  **** 			newBuffer = true;
  48:FFTMonitor.h  **** 		}
  49:FFTMonitor.h  **** 	}
  50:FFTMonitor.h  **** 	
  51:FFTMonitor.h  **** 	void setWindowType(WindowFunction::WindowType type)
  52:FFTMonitor.h  **** 	{
  53:FFTMonitor.h  **** 		win.setWindow(type);
  54:FFTMonitor.h  **** 	}
  55:FFTMonitor.h  **** 
  56:FFTMonitor.h  **** 	// Example: compute magnitude spectrum of 1024-sample buffer
  57:FFTMonitor.h  **** 	void processFrame(void) 
 863              		.loc 16 57 7 is_stmt 1 view -0
 864              		.cfi_startproc
 865              		@ args = 0, pretend = 0, frame = 24
 866              		@ frame_needed = 0, uses_anonymous_args = 0
  58:FFTMonitor.h  **** 	{
  59:FFTMonitor.h  **** 
  60:FFTMonitor.h  **** 		if (!newBuffer)
 867              		.loc 16 60 3 view .LVU231
  57:FFTMonitor.h  **** 	{
 868              		.loc 16 57 7 is_stmt 0 view .LVU232
 869 0000 2DE9F04F 		push	{r4, r5, r6, r7, r8, r9, r10, fp, lr}
 870              		.cfi_def_cfa_offset 36
 871              		.cfi_offset 4, -36
 872              		.cfi_offset 5, -32
 873              		.cfi_offset 6, -28
 874              		.cfi_offset 7, -24
 875              		.cfi_offset 8, -20
 876              		.cfi_offset 9, -16
 877              		.cfi_offset 10, -12
 878              		.cfi_offset 11, -8
 879              		.cfi_offset 14, -4
 880              		.loc 16 60 3 view .LVU233
 881 0004 0379     		ldrb	r3, [r0, #4]	@ zero_extendqisi2
  57:FFTMonitor.h  **** 	{
 882              		.loc 16 57 7 view .LVU234
 883 0006 89B0     		sub	sp, sp, #36
 884              		.cfi_def_cfa_offset 72
  57:FFTMonitor.h  **** 	{
 885              		.loc 16 57 7 view .LVU235
 886 0008 0790     		str	r0, [sp, #28]
 887              		.loc 16 60 3 view .LVU236
 888 000a 002B     		cmp	r3, #0
 889 000c 00F0EE80 		beq	.L69
 890 0010 0446     		mov	r4, r0
 891              	.LBB530:
  61:FFTMonitor.h  **** 			return; // no new data
ARM GAS  /var/folders/5f/72p4brfx5932kssh4q_5ly0m0000gn/T//cc7WxlGd.s 			page 43


  62:FFTMonitor.h  **** 
  63:FFTMonitor.h  **** #ifdef DISPLAY_FFT_TIMING
  64:FFTMonitor.h  **** 		start = System::GetTick();
  65:FFTMonitor.h  **** #endif
  66:FFTMonitor.h  **** 		// copy input, imag=0
  67:FFTMonitor.h  **** 		for (int i = 0; i < FFT_SIZE; ++i) 
  68:FFTMonitor.h  **** 		{ 
  69:FFTMonitor.h  **** 			real[i] = sampleBuffer[i]; 
 892              		.loc 16 69 12 view .LVU237
 893 0012 4FF48042 		mov	r2, #16384
 894 0016 7C49     		ldr	r1, .L107
 895 0018 7C48     		ldr	r0, .L107+4
 896              	.LVL43:
 897              		.loc 16 69 12 view .LVU238
 898 001a FFF7FEFF 		bl	memcpy
 899              	.LVL44:
  70:FFTMonitor.h  **** 			imag[i] = 0.0f; 
 900              		.loc 16 70 12 view .LVU239
 901 001e 4FF48042 		mov	r2, #16384
 902 0022 0021     		movs	r1, #0
 903 0024 7A48     		ldr	r0, .L107+8
 904 0026 FFF7FEFF 		bl	memset
 905              	.LVL45:
 906              	.LBE530:
  71:FFTMonitor.h  **** 		}
  72:FFTMonitor.h  **** 		newBuffer = false; // ready for new samples while computing FFT
 907              		.loc 16 72 3 is_stmt 1 view .LVU240
 908              		.loc 16 72 13 is_stmt 0 view .LVU241
 909 002a 0022     		movs	r2, #0
 910              	.LBB531:
 911              	.LBB532:
  33:Window.h      ****             buffer[i] *= coeffs[i];
 912              		.loc 17 33 34 view .LVU242
 913 002c A08B     		ldrh	r0, [r4, #28]
 914              	.LBE532:
 915              	.LBE531:
 916              		.loc 16 72 13 view .LVU243
 917 002e 2271     		strb	r2, [r4, #4]
  73:FFTMonitor.h  **** 
  74:FFTMonitor.h  **** 		// apply window function
  75:FFTMonitor.h  **** 		win.apply(real); 
 918              		.loc 16 75 3 is_stmt 1 view .LVU244
 919              	.LVL46:
 920              	.LBB534:
 921              	.LBI531:
  31:Window.h      ****     {
 922              		.loc 17 31 17 view .LVU245
 923              	.LBE534:
  33:Window.h      ****             buffer[i] *= coeffs[i];
 924              		.loc 17 33 9 view .LVU246
 925              	.LBB535:
 926              	.LBB533:
  33:Window.h      ****             buffer[i] *= coeffs[i];
 927              		.loc 17 33 32 view .LVU247
 928 0030 98B1     		cbz	r0, .L71
 929 0032 216A     		ldr	r1, [r4, #32]
 930 0034 0138     		subs	r0, r0, #1
ARM GAS  /var/folders/5f/72p4brfx5932kssh4q_5ly0m0000gn/T//cc7WxlGd.s 			page 44


 931 0036 754A     		ldr	r2, .L107+4
 932 0038 80B2     		uxth	r0, r0
 933 003a 0B1D     		adds	r3, r1, #4
 934 003c 03EB8000 		add	r0, r3, r0, lsl #2
 935 0040 00E0     		b	.L72
 936              	.LVL47:
 937              	.L105:
  33:Window.h      ****             buffer[i] *= coeffs[i];
 938              		.loc 17 33 32 is_stmt 0 view .LVU248
 939 0042 0433     		adds	r3, r3, #4
 940              	.LVL48:
 941              	.L72:
  34:Window.h      ****     }
 942              		.loc 17 34 13 is_stmt 1 view .LVU249
  34:Window.h      ****     }
 943              		.loc 17 34 34 is_stmt 0 view .LVU250
 944 0044 91ED007A 		vldr.32	s14, [r1]
  33:Window.h      ****             buffer[i] *= coeffs[i];
 945              		.loc 17 33 32 view .LVU251
 946 0048 9842     		cmp	r0, r3
  34:Window.h      ****     }
 947              		.loc 17 34 23 view .LVU252
 948 004a D2ED007A 		vldr.32	s15, [r2]
 949 004e 1946     		mov	r1, r3
 950 0050 67EE877A 		vmul.f32	s15, s15, s14
 951 0054 E2EC017A 		vstmia.32	r2!, {s15}
 952              	.LVL49:
  33:Window.h      ****             buffer[i] *= coeffs[i];
 953              		.loc 17 33 9 is_stmt 1 view .LVU253
  33:Window.h      ****             buffer[i] *= coeffs[i];
 954              		.loc 17 33 32 view .LVU254
 955 0058 F3D1     		bne	.L105
 956              	.LVL50:
 957              	.L71:
  33:Window.h      ****             buffer[i] *= coeffs[i];
 958              		.loc 17 33 32 is_stmt 0 view .LVU255
 959              	.LBE533:
 960              	.LBE535:
  76:FFTMonitor.h  **** 
  77:FFTMonitor.h  **** 		// forward FFT
  78:FFTMonitor.h  **** 		pFFT->fft(real, imag, false);
 961              		.loc 16 78 3 is_stmt 1 view .LVU256
 962 005a 079B     		ldr	r3, [sp, #28]
 963 005c 9B69     		ldr	r3, [r3, #24]
 964              	.LBB536:
 965              	.LBB537:
  60:FFT.h         **** 
 966              		.loc 18 60 9 is_stmt 0 view .LVU257
 967 005e D3F800A0 		ldr	r10, [r3]
 968              	.LBE537:
 969              	.LBE536:
 970              		.loc 16 78 3 view .LVU258
 971 0062 0293     		str	r3, [sp, #8]
 972              	.LVL51:
 973              	.LBB559:
 974              	.LBI536:
  58:FFT.h         ****     {
ARM GAS  /var/folders/5f/72p4brfx5932kssh4q_5ly0m0000gn/T//cc7WxlGd.s 			page 45


 975              		.loc 18 58 10 is_stmt 1 view .LVU259
 976              	.LBB557:
  60:FFT.h         **** 
 977              		.loc 18 60 9 view .LVU260
 978 0064 BAF1000F 		cmp	r10, #0
 979 0068 00F0C880 		beq	.L106
 980 006c 029B     		ldr	r3, [sp, #8]
 981              	.LBB538:
  63:FFT.h         ****             uint32_t j = bitrev[i];
 982              		.loc 18 63 23 is_stmt 0 view .LVU261
 983 006e 0022     		movs	r2, #0
 984 0070 DFF89C81 		ldr	r8, .L107+8
 985 0074 654D     		ldr	r5, .L107+4
 986 0076 DC68     		ldr	r4, [r3, #12]
 987              	.LVL52:
 988              	.LBB539:
  64:FFT.h         ****             if (j > i) {
 989              		.loc 18 64 26 view .LVU262
 990 0078 4746     		mov	r7, r8
 991 007a 4046     		mov	r0, r8
 992 007c 2946     		mov	r1, r5
 993 007e 043C     		subs	r4, r4, #4
 994              	.LVL53:
 995              	.L75:
  64:FFT.h         ****             if (j > i) {
 996              		.loc 18 64 13 is_stmt 1 view .LVU263
  64:FFT.h         ****             if (j > i) {
 997              		.loc 18 64 22 is_stmt 0 view .LVU264
 998 0080 54F8043F 		ldr	r3, [r4, #4]!
 999              	.LVL54:
  65:FFT.h         ****                 float tmp = real[i]; real[i] = real[j]; real[j] = tmp;
 1000              		.loc 18 65 13 is_stmt 1 view .LVU265
 1001              	.LBB540:
 1002 0084 9342     		cmp	r3, r2
 1003 0086 12D9     		bls	.L74
 1004              	.LBB541:
  66:FFT.h         ****                 tmp = imag[i]; imag[i] = imag[j]; imag[j] = tmp;
 1005              		.loc 18 66 17 view .LVU266
  66:FFT.h         ****                 tmp = imag[i]; imag[i] = imag[j]; imag[j] = tmp;
 1006              		.loc 18 66 54 is_stmt 0 view .LVU267
 1007 0088 604E     		ldr	r6, .L107+4
  66:FFT.h         ****                 tmp = imag[i]; imag[i] = imag[j]; imag[j] = tmp;
 1008              		.loc 18 66 23 view .LVU268
 1009 008a D1F800E0 		ldr	lr, [r1]	@ float
 1010              	.LVL55:
  66:FFT.h         ****                 tmp = imag[i]; imag[i] = imag[j]; imag[j] = tmp;
 1011              		.loc 18 66 38 is_stmt 1 view .LVU269
  66:FFT.h         ****                 tmp = imag[i]; imag[i] = imag[j]; imag[j] = tmp;
 1012              		.loc 18 66 54 is_stmt 0 view .LVU270
 1013 008e 06EB8306 		add	r6, r6, r3, lsl #2
  67:FFT.h         ****             }
 1014              		.loc 18 67 21 view .LVU271
 1015 0092 D0F800C0 		ldr	ip, [r0]	@ float
  67:FFT.h         ****             }
 1016              		.loc 18 67 48 view .LVU272
 1017 0096 07EB8303 		add	r3, r7, r3, lsl #2
 1018              	.LVL56:
ARM GAS  /var/folders/5f/72p4brfx5932kssh4q_5ly0m0000gn/T//cc7WxlGd.s 			page 46


  66:FFT.h         ****                 tmp = imag[i]; imag[i] = imag[j]; imag[j] = tmp;
 1019              		.loc 18 66 54 view .LVU273
 1020 009a D6F80090 		ldr	r9, [r6]	@ float
  66:FFT.h         ****                 tmp = imag[i]; imag[i] = imag[j]; imag[j] = tmp;
 1021              		.loc 18 66 46 view .LVU274
 1022 009e C1F80090 		str	r9, [r1]	@ float
  66:FFT.h         ****                 tmp = imag[i]; imag[i] = imag[j]; imag[j] = tmp;
 1023              		.loc 18 66 57 is_stmt 1 view .LVU275
  66:FFT.h         ****                 tmp = imag[i]; imag[i] = imag[j]; imag[j] = tmp;
 1024              		.loc 18 66 65 is_stmt 0 view .LVU276
 1025 00a2 C6F800E0 		str	lr, [r6]	@ float
  67:FFT.h         ****             }
 1026              		.loc 18 67 17 is_stmt 1 view .LVU277
 1027              	.LVL57:
  67:FFT.h         ****             }
 1028              		.loc 18 67 32 view .LVU278
  67:FFT.h         ****             }
 1029              		.loc 18 67 48 is_stmt 0 view .LVU279
 1030 00a6 1E68     		ldr	r6, [r3]	@ float
  67:FFT.h         ****             }
 1031              		.loc 18 67 40 view .LVU280
 1032 00a8 0660     		str	r6, [r0]	@ float
  67:FFT.h         ****             }
 1033              		.loc 18 67 51 is_stmt 1 view .LVU281
  67:FFT.h         ****             }
 1034              		.loc 18 67 59 is_stmt 0 view .LVU282
 1035 00aa C3F800C0 		str	ip, [r3]	@ float
 1036              	.LVL58:
 1037              	.L74:
  67:FFT.h         ****             }
 1038              		.loc 18 67 59 view .LVU283
 1039              	.LBE541:
 1040              	.LBE540:
 1041              	.LBE539:
  63:FFT.h         ****             uint32_t j = bitrev[i];
 1042              		.loc 18 63 9 is_stmt 1 view .LVU284
 1043 00ae 0132     		adds	r2, r2, #1
 1044              	.LVL59:
  63:FFT.h         ****             uint32_t j = bitrev[i];
 1045              		.loc 18 63 32 view .LVU285
 1046 00b0 0431     		adds	r1, r1, #4
 1047 00b2 0430     		adds	r0, r0, #4
 1048 00b4 9245     		cmp	r10, r2
 1049 00b6 E3D1     		bne	.L75
 1050              	.LVL60:
  63:FFT.h         ****             uint32_t j = bitrev[i];
 1051              		.loc 18 63 32 is_stmt 0 view .LVU286
 1052              	.LBE538:
 1053              	.LBB542:
  76:FFT.h         ****             uint32_t step = halfSize << 1;               // current FFT length
 1054              		.loc 18 76 40 is_stmt 1 view .LVU287
  76:FFT.h         ****             uint32_t step = halfSize << 1;               // current FFT length
 1055              		.loc 18 76 43 is_stmt 0 view .LVU288
 1056 00b8 029B     		ldr	r3, [sp, #8]
 1057 00ba 5B68     		ldr	r3, [r3, #4]
 1058 00bc 0693     		str	r3, [sp, #24]
  76:FFT.h         ****             uint32_t step = halfSize << 1;               // current FFT length
ARM GAS  /var/folders/5f/72p4brfx5932kssh4q_5ly0m0000gn/T//cc7WxlGd.s 			page 47


 1059              		.loc 18 76 40 view .LVU289
 1060 00be 002B     		cmp	r3, #0
 1061 00c0 56D0     		beq	.L76
 1062              	.LBE542:
  75:FFT.h         ****         for (uint32_t stage = 1; stage <= (uint32_t)log2N; ++stage) {
 1063              		.loc 18 75 18 view .LVU290
 1064 00c2 4FF0010B 		mov	fp, #1
 1065              	.LBB556:
  76:FFT.h         ****             uint32_t step = halfSize << 1;               // current FFT length
 1066              		.loc 18 76 23 view .LVU291
 1067 00c6 CDF81480 		str	r8, [sp, #20]
 1068 00ca CDE9035B 		strd	r5, fp, [sp, #12]
 1069              	.LVL61:
 1070              	.L80:
 1071              	.LBB543:
  77:FFT.h         ****             // twiddle step: index increment for twiddle table
 1072              		.loc 18 77 13 is_stmt 1 view .LVU292
 1073 00ce D846     		mov	r8, fp
  77:FFT.h         ****             // twiddle step: index increment for twiddle table
 1074              		.loc 18 77 22 is_stmt 0 view .LVU293
 1075 00d0 4FEA4B0B 		lsl	fp, fp, #1
 1076              	.LVL62:
  79:FFT.h         ****             for (uint32_t i = 0; i < N; i += step) {
 1077              		.loc 18 79 13 is_stmt 1 view .LVU294
  80:FFT.h         ****                 uint32_t twIndex = 0;
 1078              		.loc 18 80 13 view .LVU295
 1079              	.LBB544:
  80:FFT.h         ****                 uint32_t twIndex = 0;
 1080              		.loc 18 80 36 view .LVU296
 1081 00d4 4D4B     		ldr	r3, .L107+4
  80:FFT.h         ****                 uint32_t twIndex = 0;
 1082              		.loc 18 80 27 is_stmt 0 view .LVU297
 1083 00d6 0027     		movs	r7, #0
 1084 00d8 4FEA8809 		lsl	r9, r8, #2
 1085              	.LBE544:
  79:FFT.h         ****             for (uint32_t i = 0; i < N; i += step) {
 1086              		.loc 18 79 22 view .LVU298
 1087 00dc DDF814C0 		ldr	ip, [sp, #20]
 1088 00e0 4FEA8B0E 		lsl	lr, fp, #2
 1089 00e4 03EB8805 		add	r5, r3, r8, lsl #2
 1090 00e8 BAFBFBF6 		udiv	r6, r10, fp
 1091              	.LVL63:
  79:FFT.h         ****             for (uint32_t i = 0; i < N; i += step) {
 1092              		.loc 18 79 22 view .LVU299
 1093 00ec F600     		lsls	r6, r6, #3
 1094              	.LVL64:
 1095              	.L79:
 1096              	.LBB553:
 1097              	.LBB545:
 1098              	.LBB546:
  82:FFT.h         ****                     // get twiddle (cos, sin) for index twIndex
 1099              		.loc 18 82 40 is_stmt 1 view .LVU300
 1100 00ee B8F1000F 		cmp	r8, #0
 1101 00f2 2FD0     		beq	.L77
 1102 00f4 029B     		ldr	r3, [sp, #8]
 1103 00f6 09EB0C04 		add	r4, r9, ip
 1104              	.LBB547:
ARM GAS  /var/folders/5f/72p4brfx5932kssh4q_5ly0m0000gn/T//cc7WxlGd.s 			page 48


  84:FFT.h         ****                     float wi = twiddles[2 * twIndex + 1];
 1105              		.loc 18 84 32 is_stmt 0 view .LVU301
 1106 00fa 2846     		mov	r0, r5
 1107 00fc 6146     		mov	r1, ip
 1108 00fe 9A68     		ldr	r2, [r3, #8]
 1109 0100 039B     		ldr	r3, [sp, #12]
 1110 0102 03EB8703 		add	r3, r3, r7, lsl #2
 1111              	.LVL65:
 1112              	.L78:
  84:FFT.h         ****                     float wi = twiddles[2 * twIndex + 1];
 1113              		.loc 18 84 21 is_stmt 1 view .LVU302
  85:FFT.h         ****                     // if inverse, conjugate the twiddle (flip sign of sin)
 1114              		.loc 18 85 27 is_stmt 0 view .LVU303
 1115 0106 92ED015A 		vldr.32	s10, [r2, #4]
  95:FFT.h         **** 
 1116              		.loc 18 95 27 view .LVU304
 1117 010a D4ED007A 		vldr.32	s15, [r4]
  84:FFT.h         ****                     float wi = twiddles[2 * twIndex + 1];
 1118              		.loc 18 84 27 view .LVU305
 1119 010e D2ED004A 		vldr.32	s9, [r2]
 1120              	.LVL66:
  85:FFT.h         ****                     // if inverse, conjugate the twiddle (flip sign of sin)
 1121              		.loc 18 85 21 is_stmt 1 view .LVU306
  87:FFT.h         **** 
 1122              		.loc 18 87 21 view .LVU307
  90:FFT.h         ****                     uint32_t idxB = i + j + halfSize;
 1123              		.loc 18 90 21 view .LVU308
  91:FFT.h         ****                     float ar = real[idxA];
 1124              		.loc 18 91 21 view .LVU309
  92:FFT.h         ****                     float ai = imag[idxA];
 1125              		.loc 18 92 21 view .LVU310
 1126              	.LBE547:
  82:FFT.h         ****                     // get twiddle (cos, sin) for index twIndex
 1127              		.loc 18 82 40 is_stmt 0 view .LVU311
 1128 0112 3244     		add	r2, r2, r6
 1129              	.LBB548:
  98:FFT.h         ****                     float ti = br * wi + bi * wr;
 1130              		.loc 18 98 27 view .LVU312
 1131 0114 27EEC56A 		vnmul.f32	s12, s15, s10
  94:FFT.h         ****                     float bi = imag[idxB];
 1132              		.loc 18 94 27 view .LVU313
 1133 0118 D0ED005A 		vldr.32	s11, [r0]
  99:FFT.h         **** 
 1134              		.loc 18 99 45 view .LVU314
 1135 011c 64EEA77A 		vmul.f32	s15, s9, s15
  92:FFT.h         ****                     float ai = imag[idxA];
 1136              		.loc 18 92 27 view .LVU315
 1137 0120 D3ED006A 		vldr.32	s13, [r3]
 1138              	.LVL67:
  93:FFT.h         ****                     float br = real[idxB];
 1139              		.loc 18 93 21 is_stmt 1 view .LVU316
  93:FFT.h         ****                     float br = real[idxB];
 1140              		.loc 18 93 27 is_stmt 0 view .LVU317
 1141 0124 91ED007A 		vldr.32	s14, [r1]
 1142              	.LVL68:
  94:FFT.h         ****                     float bi = imag[idxB];
 1143              		.loc 18 94 21 is_stmt 1 view .LVU318
ARM GAS  /var/folders/5f/72p4brfx5932kssh4q_5ly0m0000gn/T//cc7WxlGd.s 			page 49


  95:FFT.h         **** 
 1144              		.loc 18 95 21 view .LVU319
  98:FFT.h         ****                     float ti = br * wi + bi * wr;
 1145              		.loc 18 98 21 view .LVU320
  98:FFT.h         ****                     float ti = br * wi + bi * wr;
 1146              		.loc 18 98 27 is_stmt 0 view .LVU321
 1147 0128 A4EEA56A 		vfma.f32	s12, s9, s11
 1148              	.LVL69:
  99:FFT.h         **** 
 1149              		.loc 18 99 21 is_stmt 1 view .LVU322
  99:FFT.h         **** 
 1150              		.loc 18 99 27 is_stmt 0 view .LVU323
 1151 012c E5EE257A 		vfma.f32	s15, s10, s11
 1152              	.LVL70:
 102:FFT.h         ****                     imag[idxA] = ai + ti;
 1153              		.loc 18 102 21 is_stmt 1 view .LVU324
 102:FFT.h         ****                     imag[idxA] = ai + ti;
 1154              		.loc 18 102 37 is_stmt 0 view .LVU325
 1155 0130 36EE865A 		vadd.f32	s10, s13, s12
 1156              	.LVL71:
 103:FFT.h         ****                     real[idxB] = ar - tr;
 1157              		.loc 18 103 37 view .LVU326
 1158 0134 77EE275A 		vadd.f32	s11, s14, s15
 1159              	.LVL72:
 104:FFT.h         ****                     imag[idxB] = ai - ti;
 1160              		.loc 18 104 37 view .LVU327
 1161 0138 76EEC66A 		vsub.f32	s13, s13, s12
 1162              	.LVL73:
 105:FFT.h         **** 
 1163              		.loc 18 105 37 view .LVU328
 1164 013c 77EE677A 		vsub.f32	s15, s14, s15
 1165              	.LVL74:
 102:FFT.h         ****                     imag[idxA] = ai + ti;
 1166              		.loc 18 102 32 view .LVU329
 1167 0140 A3EC015A 		vstmia.32	r3!, {s10}
 1168              	.LVL75:
 103:FFT.h         ****                     real[idxB] = ar - tr;
 1169              		.loc 18 103 21 is_stmt 1 view .LVU330
 1170              	.LBE548:
  82:FFT.h         ****                     // get twiddle (cos, sin) for index twIndex
 1171              		.loc 18 82 40 is_stmt 0 view .LVU331
 1172 0144 9D42     		cmp	r5, r3
 1173              	.LBB549:
 103:FFT.h         ****                     real[idxB] = ar - tr;
 1174              		.loc 18 103 32 view .LVU332
 1175 0146 E1EC015A 		vstmia.32	r1!, {s11}
 104:FFT.h         ****                     imag[idxB] = ai - ti;
 1176              		.loc 18 104 21 is_stmt 1 view .LVU333
 104:FFT.h         ****                     imag[idxB] = ai - ti;
 1177              		.loc 18 104 32 is_stmt 0 view .LVU334
 1178 014a E0EC016A 		vstmia.32	r0!, {s13}
 105:FFT.h         **** 
 1179              		.loc 18 105 21 is_stmt 1 view .LVU335
 105:FFT.h         **** 
 1180              		.loc 18 105 32 is_stmt 0 view .LVU336
 1181 014e E4EC017A 		vstmia.32	r4!, {s15}
 107:FFT.h         ****                 }
ARM GAS  /var/folders/5f/72p4brfx5932kssh4q_5ly0m0000gn/T//cc7WxlGd.s 			page 50


 1182              		.loc 18 107 21 is_stmt 1 view .LVU337
 107:FFT.h         ****                 }
 1183              		.loc 18 107 21 is_stmt 0 view .LVU338
 1184              	.LBE549:
  82:FFT.h         ****                     // get twiddle (cos, sin) for index twIndex
 1185              		.loc 18 82 17 is_stmt 1 view .LVU339
  82:FFT.h         ****                     // get twiddle (cos, sin) for index twIndex
 1186              		.loc 18 82 40 view .LVU340
 1187 0152 D8D1     		bne	.L78
 1188              	.LVL76:
 1189              	.L77:
  82:FFT.h         ****                     // get twiddle (cos, sin) for index twIndex
 1190              		.loc 18 82 40 is_stmt 0 view .LVU341
 1191              	.LBE546:
 1192              	.LBE545:
  80:FFT.h         ****                 uint32_t twIndex = 0;
 1193              		.loc 18 80 13 is_stmt 1 view .LVU342
  80:FFT.h         ****                 uint32_t twIndex = 0;
 1194              		.loc 18 80 43 is_stmt 0 view .LVU343
 1195 0154 5F44     		add	r7, r7, fp
 1196              	.LVL77:
  80:FFT.h         ****                 uint32_t twIndex = 0;
 1197              		.loc 18 80 36 is_stmt 1 view .LVU344
 1198 0156 F444     		add	ip, ip, lr
 1199 0158 7544     		add	r5, r5, lr
 1200 015a BA45     		cmp	r10, r7
 1201 015c C7D8     		bhi	.L79
 1202              	.LBE553:
 110:FFT.h         ****         }
 1203              		.loc 18 110 13 view .LVU345
 1204              	.LVL78:
 110:FFT.h         ****         }
 1205              		.loc 18 110 13 is_stmt 0 view .LVU346
 1206              	.LBE543:
  76:FFT.h         ****             uint32_t step = halfSize << 1;               // current FFT length
 1207              		.loc 18 76 9 is_stmt 1 view .LVU347
 1208 015e 049B     		ldr	r3, [sp, #16]
  76:FFT.h         ****             uint32_t step = halfSize << 1;               // current FFT length
 1209              		.loc 18 76 40 is_stmt 0 view .LVU348
 1210 0160 069A     		ldr	r2, [sp, #24]
  76:FFT.h         ****             uint32_t step = halfSize << 1;               // current FFT length
 1211              		.loc 18 76 9 view .LVU349
 1212 0162 0133     		adds	r3, r3, #1
  76:FFT.h         ****             uint32_t step = halfSize << 1;               // current FFT length
 1213              		.loc 18 76 40 view .LVU350
 1214 0164 9A42     		cmp	r2, r3
  76:FFT.h         ****             uint32_t step = halfSize << 1;               // current FFT length
 1215              		.loc 18 76 9 view .LVU351
 1216 0166 0493     		str	r3, [sp, #16]
 1217              	.LVL79:
  76:FFT.h         ****             uint32_t step = halfSize << 1;               // current FFT length
 1218              		.loc 18 76 40 is_stmt 1 view .LVU352
 1219 0168 B1D2     		bcs	.L80
 1220 016a 039D     		ldr	r5, [sp, #12]
 1221 016c DDF81480 		ldr	r8, [sp, #20]
 1222              	.LVL80:
 1223              	.L76:
ARM GAS  /var/folders/5f/72p4brfx5932kssh4q_5ly0m0000gn/T//cc7WxlGd.s 			page 51


  76:FFT.h         ****             uint32_t step = halfSize << 1;               // current FFT length
 1224              		.loc 18 76 40 is_stmt 0 view .LVU353
 1225 0170 079E     		ldr	r6, [sp, #28]
 1226 0172 284F     		ldr	r7, .L107+12
 1227 0174 2436     		adds	r6, r6, #36
 1228              	.LBB555:
 1229              	.LBB554:
 1230              	.LBB552:
 1231              	.LBB551:
 1232              	.LBB550:
  84:FFT.h         ****                     float wi = twiddles[2 * twIndex + 1];
 1233              		.loc 18 84 32 view .LVU354
 1234 0176 3446     		mov	r4, r6
 1235              	.LVL81:
 1236              	.L84:
  84:FFT.h         ****                     float wi = twiddles[2 * twIndex + 1];
 1237              		.loc 18 84 32 view .LVU355
 1238              	.LBE550:
 1239              	.LBE551:
 1240              	.LBE552:
 1241              	.LBE554:
 1242              	.LBE555:
 1243              	.LBE556:
 1244              	.LBE557:
 1245              	.LBE559:
 1246              	.LBB560:
 1247              	.LBB561:
  79:FFTMonitor.h  **** 
  80:FFTMonitor.h  **** 		// compute magnitude for bins 0..512
  81:FFTMonitor.h  **** 		for (int k = 0; k <= FFT_SIZE/2; ++k) {
  82:FFTMonitor.h  **** 			float r = real[k];
 1248              		.loc 16 82 4 is_stmt 1 discriminator 2 view .LVU356
  83:FFTMonitor.h  **** 			float im = imag[k];
 1249              		.loc 16 83 10 is_stmt 0 discriminator 2 view .LVU357
 1250 0178 B8EC010A 		vldmia.32	r8!, {s0}
  82:FFTMonitor.h  **** 			float im = imag[k];
 1251              		.loc 16 82 10 discriminator 2 view .LVU358
 1252 017c F5EC017A 		vldmia.32	r5!, {s15}
 1253              	.LVL82:
 1254              		.loc 16 83 4 is_stmt 1 discriminator 2 view .LVU359
  84:FFTMonitor.h  **** 			mag[k] = sqrtf(r*r + im*im);
 1255              		.loc 16 84 4 discriminator 2 view .LVU360
 1256              		.loc 16 84 27 is_stmt 0 discriminator 2 view .LVU361
 1257 0180 20EE000A 		vmul.f32	s0, s0, s0
 1258              	.LVL83:
 1259              		.loc 16 84 18 discriminator 2 view .LVU362
 1260 0184 A7EEA70A 		vfma.f32	s0, s15, s15
 1261 0188 B5EE400A 		vcmp.f32	s0, #0
 1262 018c F1EE10FA 		vmrs	APSR_nzcv, FPSCR
 1263 0190 2FD4     		bmi	.L103
 1264              		.loc 16 84 18 view .LVU363
 1265 0192 F1EEC07A 		vsqrt.f32	s15, s0
 1266              	.LVL84:
 1267              	.L83:
 1268              		.loc 16 84 18 view .LVU364
 1269              	.LBE561:
  81:FFTMonitor.h  **** 			float r = real[k];
ARM GAS  /var/folders/5f/72p4brfx5932kssh4q_5ly0m0000gn/T//cc7WxlGd.s 			page 52


 1270              		.loc 16 81 21 discriminator 2 view .LVU365
 1271 0196 BD42     		cmp	r5, r7
 1272              	.LBB562:
 1273              		.loc 16 84 11 discriminator 2 view .LVU366
 1274 0198 E4EC017A 		vstmia.32	r4!, {s15}
 1275              	.LBE562:
  81:FFTMonitor.h  **** 			float r = real[k];
 1276              		.loc 16 81 3 is_stmt 1 discriminator 2 view .LVU367
  81:FFTMonitor.h  **** 			float r = real[k];
 1277              		.loc 16 81 21 discriminator 2 view .LVU368
 1278 019c ECD1     		bne	.L84
 1279              	.LVL85:
  81:FFTMonitor.h  **** 			float r = real[k];
 1280              		.loc 16 81 21 is_stmt 0 discriminator 2 view .LVU369
 1281              	.LBE560:
 1282              	.LBB564:
 1283              	.LBI564:
  57:FFTMonitor.h  **** 	{
 1284              		.loc 16 57 7 is_stmt 1 view .LVU370
 1285              	.LBB565:
  85:FFTMonitor.h  **** 		}
  86:FFTMonitor.h  **** 
  87:FFTMonitor.h  **** #ifdef DISPLAY_FFT_TIMING
  88:FFTMonitor.h  **** 		end = System::GetTick();
  89:FFTMonitor.h  **** 		dur = (end - start) / 200; // us
  90:FFTMonitor.h  **** 		float sampleTime = SAMPLE_TIME_US;
  91:FFTMonitor.h  **** 		pHWPod->seed.PrintLine("FFT Magnitudes duration %u us (%.0f)", dur, sampleTime);
  92:FFTMonitor.h  **** #else
  93:FFTMonitor.h  **** 		pHWPod->seed.PrintLine("#BEGIN");
 1286              		.loc 16 93 3 view .LVU371
 1287              	.LBB566:
 1288              	.LBI566:
  23:../../libDaisy//src/daisy_seed.h **** 
  24:../../libDaisy//src/daisy_seed.h ****     /** This function used to provide a pre-initialization configuraiton 
  25:../../libDaisy//src/daisy_seed.h ****      *  it has since been deprecated, and does nothing.
  26:../../libDaisy//src/daisy_seed.h ****      */
  27:../../libDaisy//src/daisy_seed.h ****     void Configure();
  28:../../libDaisy//src/daisy_seed.h **** 
  29:../../libDaisy//src/daisy_seed.h ****     /** 
  30:../../libDaisy//src/daisy_seed.h ****     Initializes the Daisy Seed and the following peripherals:
  31:../../libDaisy//src/daisy_seed.h ****     SDRAM, QSPI, 24-bit 48kHz Audio via AK4556, Internal USB,
  32:../../libDaisy//src/daisy_seed.h ****     as well as the built-in LED and Testpoint.
  33:../../libDaisy//src/daisy_seed.h **** 
  34:../../libDaisy//src/daisy_seed.h ****     ADCs, DACs, and other special peripherals (such as I2C, SPI, etc.)
  35:../../libDaisy//src/daisy_seed.h ****     can be initialized using their specific initializers within libdaisy
  36:../../libDaisy//src/daisy_seed.h ****     for a specific application.
  37:../../libDaisy//src/daisy_seed.h ****     */
  38:../../libDaisy//src/daisy_seed.h ****     void Init(bool boost = false);
  39:../../libDaisy//src/daisy_seed.h **** 
  40:../../libDaisy//src/daisy_seed.h ****     /** 
  41:../../libDaisy//src/daisy_seed.h ****     Deinitializes all peripherals automatically handled by `Init`.
  42:../../libDaisy//src/daisy_seed.h ****     */
  43:../../libDaisy//src/daisy_seed.h ****     void DeInit();
  44:../../libDaisy//src/daisy_seed.h **** 
  45:../../libDaisy//src/daisy_seed.h ****     /** 
  46:../../libDaisy//src/daisy_seed.h ****     Wait some ms before going on.
  47:../../libDaisy//src/daisy_seed.h ****     \param del Delay time in ms.
ARM GAS  /var/folders/5f/72p4brfx5932kssh4q_5ly0m0000gn/T//cc7WxlGd.s 			page 53


  48:../../libDaisy//src/daisy_seed.h ****     */
  49:../../libDaisy//src/daisy_seed.h ****     void DelayMs(size_t del);
  50:../../libDaisy//src/daisy_seed.h **** 
  51:../../libDaisy//src/daisy_seed.h ****     /** 
  52:../../libDaisy//src/daisy_seed.h ****     Returns the gpio_pin corresponding to the index 0-31.
  53:../../libDaisy//src/daisy_seed.h ****     For the given GPIO on the Daisy Seed (labeled 1-32 in docs).
  54:../../libDaisy//src/daisy_seed.h ****     */
  55:../../libDaisy//src/daisy_seed.h ****     static dsy_gpio_pin GetPin(uint8_t pin_idx);
  56:../../libDaisy//src/daisy_seed.h **** 
  57:../../libDaisy//src/daisy_seed.h ****     /** Begins the audio for the seeds builtin audio.
  58:../../libDaisy//src/daisy_seed.h ****     the specified callback will get called whenever
  59:../../libDaisy//src/daisy_seed.h ****     new data is ready to be prepared.
  60:../../libDaisy//src/daisy_seed.h ****     */
  61:../../libDaisy//src/daisy_seed.h ****     void StartAudio(AudioHandle::InterleavingAudioCallback cb);
  62:../../libDaisy//src/daisy_seed.h **** 
  63:../../libDaisy//src/daisy_seed.h ****     /** Begins the audio for the seeds builtin audio.
  64:../../libDaisy//src/daisy_seed.h ****     the specified callback will get called whenever
  65:../../libDaisy//src/daisy_seed.h ****     new data is ready to be prepared.
  66:../../libDaisy//src/daisy_seed.h ****     This will use the newer non-interleaved callback.
  67:../../libDaisy//src/daisy_seed.h ****     */
  68:../../libDaisy//src/daisy_seed.h ****     void StartAudio(AudioHandle::AudioCallback cb);
  69:../../libDaisy//src/daisy_seed.h **** 
  70:../../libDaisy//src/daisy_seed.h ****     /** Changes to a new interleaved callback
  71:../../libDaisy//src/daisy_seed.h ****      */
  72:../../libDaisy//src/daisy_seed.h ****     void ChangeAudioCallback(AudioHandle::InterleavingAudioCallback cb);
  73:../../libDaisy//src/daisy_seed.h **** 
  74:../../libDaisy//src/daisy_seed.h ****     /** Changes to a new multichannel callback
  75:../../libDaisy//src/daisy_seed.h ****      */
  76:../../libDaisy//src/daisy_seed.h ****     void ChangeAudioCallback(AudioHandle::AudioCallback cb);
  77:../../libDaisy//src/daisy_seed.h **** 
  78:../../libDaisy//src/daisy_seed.h ****     /** Stops the audio if it is running. */
  79:../../libDaisy//src/daisy_seed.h ****     void StopAudio();
  80:../../libDaisy//src/daisy_seed.h **** 
  81:../../libDaisy//src/daisy_seed.h ****     /** Updates the Audio Sample Rate, and reinitializes.
  82:../../libDaisy//src/daisy_seed.h ****      ** Audio must be stopped for this to work.
  83:../../libDaisy//src/daisy_seed.h ****      */
  84:../../libDaisy//src/daisy_seed.h ****     void SetAudioSampleRate(SaiHandle::Config::SampleRate samplerate);
  85:../../libDaisy//src/daisy_seed.h **** 
  86:../../libDaisy//src/daisy_seed.h ****     /** Returns the audio sample rate in Hz as a floating point number.
  87:../../libDaisy//src/daisy_seed.h ****      */
  88:../../libDaisy//src/daisy_seed.h ****     float AudioSampleRate();
  89:../../libDaisy//src/daisy_seed.h **** 
  90:../../libDaisy//src/daisy_seed.h ****     /** Sets the number of samples processed per channel by the audio callback.
  91:../../libDaisy//src/daisy_seed.h ****      */
  92:../../libDaisy//src/daisy_seed.h ****     void SetAudioBlockSize(size_t blocksize);
  93:../../libDaisy//src/daisy_seed.h **** 
  94:../../libDaisy//src/daisy_seed.h ****     /** Returns the number of samples per channel in a block of audio. */
  95:../../libDaisy//src/daisy_seed.h ****     size_t AudioBlockSize();
  96:../../libDaisy//src/daisy_seed.h **** 
  97:../../libDaisy//src/daisy_seed.h ****     /** Returns the rate in Hz that the Audio callback is called */
  98:../../libDaisy//src/daisy_seed.h ****     float AudioCallbackRate() const;
  99:../../libDaisy//src/daisy_seed.h **** 
 100:../../libDaisy//src/daisy_seed.h ****     /** Returns the SAI Handle for the Daisy Seed 
 101:../../libDaisy//src/daisy_seed.h ****      *  This can be useful when adding a secondary codec,
 102:../../libDaisy//src/daisy_seed.h ****      *  the result of this function can be passed to the audio reinit 
 103:../../libDaisy//src/daisy_seed.h ****      *  with an SAI2 configuration
 104:../../libDaisy//src/daisy_seed.h ****      */
ARM GAS  /var/folders/5f/72p4brfx5932kssh4q_5ly0m0000gn/T//cc7WxlGd.s 			page 54


 105:../../libDaisy//src/daisy_seed.h ****     const SaiHandle& AudioSaiHandle() const;
 106:../../libDaisy//src/daisy_seed.h **** 
 107:../../libDaisy//src/daisy_seed.h ****     /** Sets the state of the built in LED
 108:../../libDaisy//src/daisy_seed.h ****      */
 109:../../libDaisy//src/daisy_seed.h ****     void SetLed(bool state);
 110:../../libDaisy//src/daisy_seed.h **** 
 111:../../libDaisy//src/daisy_seed.h ****     /** Sets the state of the test point near pin 10
 112:../../libDaisy//src/daisy_seed.h ****      */
 113:../../libDaisy//src/daisy_seed.h ****     void SetTestPoint(bool state);
 114:../../libDaisy//src/daisy_seed.h **** 
 115:../../libDaisy//src/daisy_seed.h ****     /** Print formatted debug log message
 116:../../libDaisy//src/daisy_seed.h ****      */
 117:../../libDaisy//src/daisy_seed.h ****     template <typename... VA>
 118:../../libDaisy//src/daisy_seed.h ****     static void Print(const char* format, VA... va)
 119:../../libDaisy//src/daisy_seed.h ****     {
 120:../../libDaisy//src/daisy_seed.h ****         Log::Print(format, va...);
 121:../../libDaisy//src/daisy_seed.h ****     }
 122:../../libDaisy//src/daisy_seed.h **** 
 123:../../libDaisy//src/daisy_seed.h ****     /** Print formatted debug log message with automatic line termination
 124:../../libDaisy//src/daisy_seed.h ****     */
 125:../../libDaisy//src/daisy_seed.h ****     template <typename... VA>
 126:../../libDaisy//src/daisy_seed.h ****     static void PrintLine(const char* format, VA... va)
 1289              		.loc 10 126 17 view .LVU372
 1290              	.LBB567:
 127:../../libDaisy//src/daisy_seed.h ****     {
 128:../../libDaisy//src/daisy_seed.h ****         Log::PrintLine(format, va...);
 1291              		.loc 10 128 23 is_stmt 0 view .LVU373
 1292 019e 1E48     		ldr	r0, .L107+16
 1293              	.LBE567:
 1294              	.LBE566:
 1295              	.LBB569:
  94:FFTMonitor.h  **** 		pHWPod->seed.PrintLine("Frequency,Amplitude");
  95:FFTMonitor.h  **** 		
  96:FFTMonitor.h  **** 		for (int k = 0; k <= FFT_SIZE/2; ++k)	
 1296              		.loc 16 96 12 view .LVU374
 1297 01a0 0024     		movs	r4, #0
 1298              	.LBE569:
 1299              	.LBB577:
 1300              	.LBB568:
 1301              		.loc 10 128 23 view .LVU375
 1302 01a2 FFF7FEFF 		bl	_ZN5daisy6LoggerILNS_17LoggerDestinationE1EE9PrintLineEPKcz
 1303              	.LVL86:
 1304              		.loc 10 128 23 view .LVU376
 1305              	.LBE568:
 1306              	.LBE577:
  94:FFTMonitor.h  **** 		pHWPod->seed.PrintLine("Frequency,Amplitude");
 1307              		.loc 16 94 3 is_stmt 1 view .LVU377
 1308              	.LBB578:
 1309              	.LBI578:
 126:../../libDaisy//src/daisy_seed.h ****     {
 1310              		.loc 10 126 17 view .LVU378
 1311              	.LBB579:
 1312              		.loc 10 128 23 is_stmt 0 view .LVU379
 1313 01a6 1D48     		ldr	r0, .L107+20
 1314 01a8 FFF7FEFF 		bl	_ZN5daisy6LoggerILNS_17LoggerDestinationE1EE9PrintLineEPKcz
 1315              	.LVL87:
 1316              		.loc 10 128 23 view .LVU380
ARM GAS  /var/folders/5f/72p4brfx5932kssh4q_5ly0m0000gn/T//cc7WxlGd.s 			page 55


 1317              	.LBE579:
 1318              	.LBE578:
 1319              		.loc 16 96 3 is_stmt 1 view .LVU381
 1320              	.LBB580:
 1321              		.loc 16 96 21 view .LVU382
 1322              	.L85:
 1323              	.LBB570:
  97:FFTMonitor.h  **** 		{
  98:FFTMonitor.h  **** 			float freq = k * ((float)SAMPLE_RATE / FFT_SIZE);
 1324              		.loc 16 98 4 view .LVU383
  99:FFTMonitor.h  **** 			pHWPod->seed.PrintLine("%.1f,%.6f", freq, mag[k]);
 1325              		.loc 16 99 4 view .LVU384
  98:FFTMonitor.h  **** 			pHWPod->seed.PrintLine("%.1f,%.6f", freq, mag[k]);
 1326              		.loc 16 98 19 is_stmt 0 view .LVU385
 1327 01ac 07EE904A 		vmov	s15, r4	@ int
  98:FFTMonitor.h  **** 			pHWPod->seed.PrintLine("%.1f,%.6f", freq, mag[k]);
 1328              		.loc 16 98 10 view .LVU386
 1329 01b0 9FED1B7A 		vldr.32	s14, .L107+24
 1330              		.loc 16 99 26 view .LVU387
 1331 01b4 B6EC016A 		vldmia.32	r6!, {s12}
 1332              	.LVL88:
 1333              	.LBB571:
 1334              	.LBI571:
 126:../../libDaisy//src/daisy_seed.h ****     {
 1335              		.loc 10 126 17 is_stmt 1 view .LVU388
 1336              	.LBE571:
 1337              	.LBE570:
  96:FFTMonitor.h  **** 		{
 1338              		.loc 16 96 3 is_stmt 0 view .LVU389
 1339 01b8 0134     		adds	r4, r4, #1
 1340              	.LVL89:
 1341              	.LBB576:
  98:FFTMonitor.h  **** 			pHWPod->seed.PrintLine("%.1f,%.6f", freq, mag[k]);
 1342              		.loc 16 98 19 view .LVU390
 1343 01ba F8EEE77A 		vcvt.f32.s32	s15, s15
 1344              	.LVL90:
 1345              	.LBB574:
 1346              	.LBB572:
 1347              		.loc 10 128 23 view .LVU391
 1348 01be 1948     		ldr	r0, .L107+28
 1349 01c0 B7EEC66A 		vcvt.f64.f32	d6, s12
 1350              	.LVL91:
 1351              		.loc 10 128 23 view .LVU392
 1352              	.LBE572:
 1353              	.LBE574:
  98:FFTMonitor.h  **** 			pHWPod->seed.PrintLine("%.1f,%.6f", freq, mag[k]);
 1354              		.loc 16 98 10 view .LVU393
 1355 01c4 67EE877A 		vmul.f32	s15, s15, s14
 1356              	.LVL92:
 1357              	.LBB575:
 1358              	.LBB573:
 1359              		.loc 10 128 23 view .LVU394
 1360 01c8 8DED006B 		vstr.64	d6, [sp]
 1361              	.LVL93:
 1362              		.loc 10 128 23 view .LVU395
 1363 01cc B7EEE77A 		vcvt.f64.f32	d7, s15
 1364 01d0 53EC172B 		vmov	r2, r3, d7
ARM GAS  /var/folders/5f/72p4brfx5932kssh4q_5ly0m0000gn/T//cc7WxlGd.s 			page 56


 1365 01d4 FFF7FEFF 		bl	_ZN5daisy6LoggerILNS_17LoggerDestinationE1EE9PrintLineEPKcz
 1366              	.LVL94:
 1367              		.loc 10 128 23 view .LVU396
 1368              	.LBE573:
 1369              	.LBE575:
 1370              	.LBE576:
  96:FFTMonitor.h  **** 		{
 1371              		.loc 16 96 3 is_stmt 1 view .LVU397
  96:FFTMonitor.h  **** 		{
 1372              		.loc 16 96 21 view .LVU398
 1373 01d8 40F60103 		movw	r3, #2049
 1374 01dc 9C42     		cmp	r4, r3
 1375 01de E5D1     		bne	.L85
 1376              	.LBE580:
 100:FFTMonitor.h  **** 		}
 101:FFTMonitor.h  **** 		pHWPod->seed.PrintLine("#END");
 1377              		.loc 16 101 3 view .LVU399
 1378              	.LVL95:
 1379              	.LBB581:
 1380              	.LBI581:
 126:../../libDaisy//src/daisy_seed.h ****     {
 1381              		.loc 10 126 17 view .LVU400
 1382              	.LBB582:
 1383              		.loc 10 128 23 is_stmt 0 view .LVU401
 1384 01e0 1148     		ldr	r0, .L107+32
 1385              	.LBE582:
 1386              	.LBE581:
 1387              	.LBE565:
 1388              	.LBE564:
 102:FFTMonitor.h  **** #endif
 103:FFTMonitor.h  **** 			
 104:FFTMonitor.h  **** 	}
 1389              		.loc 16 104 2 view .LVU402
 1390 01e2 09B0     		add	sp, sp, #36
 1391              		.cfi_remember_state
 1392              		.cfi_def_cfa_offset 36
 1393              		@ sp needed
 1394 01e4 BDE8F04F 		pop	{r4, r5, r6, r7, r8, r9, r10, fp, lr}
 1395              		.cfi_restore 14
 1396              		.cfi_restore 11
 1397              		.cfi_restore 10
 1398              		.cfi_restore 9
 1399              		.cfi_restore 8
 1400              		.cfi_restore 7
 1401              		.cfi_restore 6
 1402              		.cfi_restore 5
 1403              		.cfi_restore 4
 1404              		.cfi_def_cfa_offset 0
 1405              	.LVL96:
 1406              	.LBB586:
 1407              	.LBB585:
 1408              	.LBB584:
 1409              	.LBB583:
 1410              		.loc 10 128 23 view .LVU403
 1411 01e8 FFF7FEBF 		b	_ZN5daisy6LoggerILNS_17LoggerDestinationE1EE9PrintLineEPKcz
 1412              	.LVL97:
 1413              	.L69:
ARM GAS  /var/folders/5f/72p4brfx5932kssh4q_5ly0m0000gn/T//cc7WxlGd.s 			page 57


 1414              		.cfi_restore_state
 1415              		.loc 10 128 23 view .LVU404
 1416              	.LBE583:
 1417              	.LBE584:
 1418              	.LBE585:
 1419              	.LBE586:
 1420              		.loc 16 104 2 view .LVU405
 1421 01ec 09B0     		add	sp, sp, #36
 1422              		.cfi_remember_state
 1423              		.cfi_def_cfa_offset 36
 1424              		@ sp needed
 1425 01ee BDE8F08F 		pop	{r4, r5, r6, r7, r8, r9, r10, fp, pc}
 1426              	.LVL98:
 1427              	.L103:
 1428              		.cfi_restore_state
 1429              	.LBB587:
 1430              	.LBB563:
  84:FFTMonitor.h  **** 		}
 1431              		.loc 16 84 18 discriminator 2 view .LVU406
 1432 01f2 FFF7FEFF 		bl	sqrtf
 1433              	.LVL99:
  84:FFTMonitor.h  **** 		}
 1434              		.loc 16 84 18 discriminator 2 view .LVU407
 1435 01f6 F0EE407A 		vmov.f32	s15, s0
 1436 01fa CCE7     		b	.L83
 1437              	.LVL100:
 1438              	.L106:
  84:FFTMonitor.h  **** 		}
 1439              		.loc 16 84 18 discriminator 2 view .LVU408
 1440              	.LBE563:
 1441              	.LBE587:
 1442              	.LBB588:
 1443              	.LBB558:
  60:FFT.h         **** 
 1444              		.loc 18 60 9 view .LVU409
 1445 01fc 0B4B     		ldr	r3, .L107+36
 1446              	.LVL101:
  60:FFT.h         **** 
 1447              		.loc 18 60 9 view .LVU410
 1448 01fe 3C21     		movs	r1, #60
 1449 0200 0B4A     		ldr	r2, .L107+40
 1450 0202 0C48     		ldr	r0, .L107+44
 1451 0204 FFF7FEFF 		bl	__assert_func
 1452              	.LVL102:
 1453              	.L108:
  60:FFT.h         **** 
 1454              		.loc 18 60 9 view .LVU411
 1455              		.align	2
 1456              	.L107:
 1457 0208 00800000 		.word	_ZL12sampleBuffer
 1458 020c 00400000 		.word	_ZL4real
 1459 0210 00000000 		.word	_ZL4imag
 1460 0214 04600000 		.word	_ZL4real+8196
 1461 0218 44000000 		.word	.LC3
 1462 021c 4C000000 		.word	.LC4
 1463 0220 00803B41 		.word	1094418432
 1464 0224 60000000 		.word	.LC5
ARM GAS  /var/folders/5f/72p4brfx5932kssh4q_5ly0m0000gn/T//cc7WxlGd.s 			page 58


 1465 0228 6C000000 		.word	.LC6
 1466 022c 00000000 		.word	.LC0
 1467 0230 18000000 		.word	.LC1
 1468 0234 3C000000 		.word	.LC2
 1469              	.LBE558:
 1470              	.LBE588:
 1471              		.cfi_endproc
 1472              	.LFE4740:
 1474              		.section	.text.startup._GLOBAL__sub_I__Z13AudioCallbackPKPKfPPfj,"ax",%progbits
 1475              		.align	1
 1476              		.p2align 2,,3
 1477              		.syntax unified
 1478              		.thumb
 1479              		.thumb_func
 1481              	_GLOBAL__sub_I__Z13AudioCallbackPKPKfPPfj:
 1482              	.LFB5333:
  33:Application.cpp **** static DaisyPod hwPod; // Used for realtime audio and controls
  34:Application.cpp **** static uint32_t  start, end, dur;
  35:Application.cpp **** static FFT fft;
  36:Application.cpp **** static FFTMonitor fftMonitor(&hwPod, &fft);
  37:Application.cpp **** 
  38:Application.cpp **** static Equalizer equalizerLeft;
  39:Application.cpp **** static Equalizer equalizerRight;
  40:Application.cpp **** static Controller controller(&equalizerLeft, &equalizerRight, &hwPod);
  41:Application.cpp **** 
  42:Application.cpp **** void AudioCallback(AudioHandle::InputBuffer in, AudioHandle::OutputBuffer out, size_t size)
  43:Application.cpp **** {
  44:Application.cpp **** 	start = System::GetTick();
  45:Application.cpp **** 
  46:Application.cpp **** 	for (size_t i = 0; i < size; i++)
  47:Application.cpp **** 	{
  48:Application.cpp **** 		float sample = equalizerLeft.Process(in[0][i]); 
  49:Application.cpp **** 		fftMonitor.insertSample(sample);
  50:Application.cpp **** 		out[0][i] = sample;
  51:Application.cpp **** 		out[1][i] = equalizerRight.Process(in[1][i]);
  52:Application.cpp **** 
  53:Application.cpp **** 		// Bypass filter
  54:Application.cpp **** 		//out[0][i] = in[0][i];
  55:Application.cpp **** 		//out[1][i] = in[1][i];
  56:Application.cpp **** 	}
  57:Application.cpp **** 
  58:Application.cpp **** 	end = System::GetTick();
  59:Application.cpp **** 	dur = (end - start) * 5; // ns
  60:Application.cpp **** 	//dur = (end - start) / 200; // us
  61:Application.cpp **** }
  62:Application.cpp **** 
  63:Application.cpp **** #ifndef USE_HWPOD
  64:Application.cpp **** 
  65:Application.cpp **** static Oscillator osc; // Oscillator for testing
  66:Application.cpp **** static DaisySeed hwSeed; // Used for testing and logging without hwPod
  67:Application.cpp **** 
  68:Application.cpp **** void algoTester(void)
  69:Application.cpp **** {
  70:Application.cpp **** 	// Placeholder for non-realtime testing of algorithms
  71:Application.cpp **** 	float sample, res, sample_rate; 
  72:Application.cpp **** 
  73:Application.cpp ****     // Below code creates COM4 port and displays log messages
ARM GAS  /var/folders/5f/72p4brfx5932kssh4q_5ly0m0000gn/T//cc7WxlGd.s 			page 59


  74:Application.cpp **** 	// hwSeed and hwPod do not work well together
  75:Application.cpp **** 	hwSeed.Configure();
  76:Application.cpp **** 	hwSeed.Init();
  77:Application.cpp **** 	hwSeed.StartLog();
  78:Application.cpp ****     System::Delay(5000); // Wait 5 second
  79:Application.cpp **** 	hwSeed.PrintLine("Daisy Pod IIR Filter Example");
  80:Application.cpp **** 
  81:Application.cpp ****     hwSeed.SetAudioBlockSize(SAMPLE_BUFFER_SIZE);
  82:Application.cpp ****     sample_rate = hwSeed.AudioSampleRate();
  83:Application.cpp ****     osc.Init(sample_rate);
  84:Application.cpp **** 	hwSeed.PrintLine("Sample rate %.6f", sample_rate);	
  85:Application.cpp **** 
  86:Application.cpp **** 	// Set parameters for oscillator
  87:Application.cpp ****     osc.SetWaveform(osc.WAVE_SIN);
  88:Application.cpp ****     osc.SetFreq(785); // Notch frequency Hz
  89:Application.cpp ****     osc.SetAmp(0.5);
  90:Application.cpp **** 	
  91:Application.cpp **** 	equalizerLeft.setBypass(false);
  92:Application.cpp **** 	while (1) {
  93:Application.cpp **** 		//sample = 0.5f;
  94:Application.cpp **** 		sample = osc.Process();
  95:Application.cpp **** 		start = System::GetTick();
  96:Application.cpp **** 		res = equalizerLeft.Process(sample);
  97:Application.cpp **** 		end = System::GetTick();
  98:Application.cpp **** 		dur = (end - start) * 5; // ps
  99:Application.cpp **** 		//dur = (end - start) / 200; // us
 100:Application.cpp **** 		//hwSeed.PrintLine("IIR filter duration = %u ns start = %u end = %u", dur, start, end);
 101:Application.cpp **** 		//hwSeed.PrintLine("Sample input %.4f and output %.4f", sample, res);
 102:Application.cpp **** 		hwSeed.PrintLine("%.6f,%.6f", sample, res);
 103:Application.cpp **** 		System::Delay(100); // Wait 100 mseconds
 104:Application.cpp **** 	}
 105:Application.cpp **** 
 106:Application.cpp **** }
 107:Application.cpp **** 
 108:Application.cpp **** #endif
 109:Application.cpp **** 
 110:Application.cpp **** int main(void)
 111:Application.cpp **** {
 112:Application.cpp **** 	equalizerLeft.Init(SAMPLE_RATE);
 113:Application.cpp **** 	equalizerLeft.setBypass(true);
 114:Application.cpp **** 	equalizerRight.Init(SAMPLE_RATE);
 115:Application.cpp **** 	equalizerRight.setBypass(true);
 116:Application.cpp **** 
 117:Application.cpp **** #ifdef USE_HWPOD // Realtime audio with Daisy Pod and IIR Filter bypass toggle
 118:Application.cpp **** 
 119:Application.cpp **** 	int32_t  inc;
 120:Application.cpp **** 	bool eqOn = false;
 121:Application.cpp **** 	int counter = 0;
 122:Application.cpp **** 	int band = 0;
 123:Application.cpp **** 
 124:Application.cpp **** 	my_colors[0].Init(Color::PresetColor::RED);
 125:Application.cpp **** 	my_colors[1].Init(Color::PresetColor::GOLD);
 126:Application.cpp ****     my_colors[2].Init(Color::PresetColor::GREEN);
 127:Application.cpp ****     my_colors[3].Init(Color::PresetColor::BLUE);
 128:Application.cpp ****     my_colors[4].Init(Color::PresetColor::PURPLE);
 129:Application.cpp **** 	my_colors[5].Init(Color::PresetColor::WHITE);
 130:Application.cpp ****     my_colors[6].Init(Color::PresetColor::OFF);
ARM GAS  /var/folders/5f/72p4brfx5932kssh4q_5ly0m0000gn/T//cc7WxlGd.s 			page 60


 131:Application.cpp **** 
 132:Application.cpp **** 	fft.init(FFT_SIZE);
 133:Application.cpp **** 	//fftMonitor.setWindowType(WindowFunction::WELCH);
 134:Application.cpp **** 	//fftMonitor.setWindowType(WindowFunction::BLACKMAN);
 135:Application.cpp **** 	fftMonitor.setWindowType(WindowFunction::HANNING);
 136:Application.cpp **** 	
 137:Application.cpp **** 	hwPod.Init();
 138:Application.cpp **** 	hwPod.seed.StartLog();
 139:Application.cpp **** 	hwPod.SetAudioBlockSize(SAMPLE_BUFFER_SIZE); // number of samples handled per callback
 140:Application.cpp **** 	
 141:Application.cpp **** 	if (SAMPLE_RATE == 48000)
 142:Application.cpp **** 		hwPod.SetAudioSampleRate(SaiHandle::Config::SampleRate::SAI_48KHZ);
 143:Application.cpp **** 	else if (SAMPLE_RATE == 96000)
 144:Application.cpp **** 		hwPod.SetAudioSampleRate(SaiHandle::Config::SampleRate::SAI_96KHZ);
 145:Application.cpp **** 	else
 146:Application.cpp **** 		hwPod.seed.PrintLine("Unsupported sample rate %d", SAMPLE_RATE);		
 147:Application.cpp **** 
 148:Application.cpp **** 	hwPod.StartAdc();
 149:Application.cpp **** 	hwPod.StartAudio(AudioCallback);
 150:Application.cpp **** 
 151:Application.cpp ****     while(1)
 152:Application.cpp ****     {
 153:Application.cpp ****     	hwPod.ProcessAllControls(); 
 154:Application.cpp **** 	
 155:Application.cpp **** 		// Debounce the Encoder at a steady, fixed rate.
 156:Application.cpp **** 		//hwPod.encoder.Debounce();
 157:Application.cpp **** 		inc = hwPod.encoder.Increment();
 158:Application.cpp **** 
 159:Application.cpp **** 		if (inc < 0) {
 160:Application.cpp **** 			controller.adjust(DEC_PARAM_VALUE);
 161:Application.cpp **** 		}
 162:Application.cpp **** 		else if (inc > 0) {
 163:Application.cpp **** 			controller.adjust(INC_PARAM_VALUE);
 164:Application.cpp **** 		}
 165:Application.cpp **** 		if (hwPod.encoder.RisingEdge()) {
 166:Application.cpp ****     	// Encoder-knap til at vælge param (trigger én gang)
 167:Application.cpp **** 			controller.incParam();
 168:Application.cpp **** 		}
 169:Application.cpp ****         // using button1 turn EQ on/off
 170:Application.cpp ****         if (hwPod.button1.RisingEdge()) {
 171:Application.cpp **** 			eqOn = !eqOn;
 172:Application.cpp **** 			controller.setBypass(!eqOn);
 173:Application.cpp **** 		}
 174:Application.cpp **** 
 175:Application.cpp ****        // using button2 select eq band
 176:Application.cpp ****  		if (hwPod.button2.RisingEdge()) {
 177:Application.cpp **** 			band = (int)controller.adjust(SEL_BAND);
 178:Application.cpp **** 			hwPod.seed.PrintLine("Equalizer band %d", band);
 179:Application.cpp **** 			counter = 1;
 180:Application.cpp **** 		}
 181:Application.cpp **** 		// 
 182:Application.cpp **** 		hwPod.ClearLeds();
 183:Application.cpp **** 
 184:Application.cpp **** 		// Opdaterer led1 med param eller off
 185:Application.cpp **** 		PARAMETER param = controller.getParam();
 186:Application.cpp **** 
 187:Application.cpp **** 		//int EqOn = eqOn ? 3 : 4; // LED White if on, Off if bypass
ARM GAS  /var/folders/5f/72p4brfx5932kssh4q_5ly0m0000gn/T//cc7WxlGd.s 			page 61


 188:Application.cpp **** 		int led1;
 189:Application.cpp **** 		if (eqOn && (param == PM_GAIN)){
 190:Application.cpp **** 			hwPod.led1.SetColor(my_colors[0]);
 191:Application.cpp **** 		}
 192:Application.cpp **** 		else if (eqOn && (param == PM_FREQ)){
 193:Application.cpp **** 			hwPod.led1.SetColor(my_colors[2]);
 194:Application.cpp **** 		}
 195:Application.cpp **** 		// off-case
 196:Application.cpp **** 		else{
 197:Application.cpp **** 			hwPod.led1.SetColor(my_colors[6]);
 198:Application.cpp **** 		}
 199:Application.cpp **** 		hwPod.led2.SetColor(my_colors[band]);
 200:Application.cpp **** 		hwPod.UpdateLeds();
 201:Application.cpp **** 		
 202:Application.cpp **** 		if (counter % 200000 == 0) { // Print every ~1 seconds
 203:Application.cpp **** 			//hwPod.seed.PrintLine("Daisy Pod IIR Filter Example");
 204:Application.cpp **** 			//hwPod.seed.PrintLine("Equalizer duration = %u ns start = %u end = %u", dur, start, end);
 205:Application.cpp **** 			
 206:Application.cpp **** 			//controller.printState(dur, SAMPLE_TIME_NS);
 207:Application.cpp **** 			controller.printParam();
 208:Application.cpp **** 			fftMonitor.processFrame();
 209:Application.cpp **** 		}
 210:Application.cpp **** 		counter++;
 211:Application.cpp **** 		//System::Delay(1); // Wait 1 ms
 212:Application.cpp ****     }
 213:Application.cpp **** 
 214:Application.cpp **** #else // Non-realtime test with Daisy Seed testing and logging
 215:Application.cpp **** 
 216:Application.cpp **** 	algoTester();
 217:Application.cpp **** 
 218:Application.cpp **** #endif
 219:Application.cpp **** 
 220:Application.cpp **** }
 1483              		.loc 15 220 1 is_stmt 1 view -0
 1484              		.cfi_startproc
 1485              		@ args = 0, pretend = 0, frame = 0
 1486              		@ frame_needed = 0, uses_anonymous_args = 0
 1487              	.LBB669:
 1488              	.LBI669:
 1489              		.loc 15 220 1 view .LVU413
 1490              	.LVL103:
 1491              	.LBB670:
  32:Application.cpp **** static DaisyPod hwPod; // Used for realtime audio and controls
 1492              		.loc 15 32 34 view .LVU414
 1493              	.LBE670:
 1494              	.LBE669:
 1495              		.loc 15 220 1 is_stmt 0 view .LVU415
 1496 0000 2DE9F041 		push	{r4, r5, r6, r7, r8, lr}
 1497              		.cfi_def_cfa_offset 24
 1498              		.cfi_offset 4, -24
 1499              		.cfi_offset 5, -20
 1500              		.cfi_offset 6, -16
 1501              		.cfi_offset 7, -12
 1502              		.cfi_offset 8, -8
 1503              		.cfi_offset 14, -4
 1504              	.LBB811:
 1505              	.LBB809:
ARM GAS  /var/folders/5f/72p4brfx5932kssh4q_5ly0m0000gn/T//cc7WxlGd.s 			page 62


 1506              	.LBB671:
 1507              	.LBB672:
 1508              	.LBB673:
 1509              	.LBB674:
 1510              	.LBB675:
 1511              	.LBB676:
 1512              	.LBB677:
 1513              		.file 19 "../../libDaisy//src/per/qspi.h"
   1:../../libDaisy//src/per/qspi.h **** #ifndef DSY_QSPI
   2:../../libDaisy//src/per/qspi.h **** #define DSY_QSPI /**< Macro */
   3:../../libDaisy//src/per/qspi.h **** 
   4:../../libDaisy//src/per/qspi.h **** #ifndef UNIT_TEST // for unit tests, a dummy implementation
   5:../../libDaisy//src/per/qspi.h **** 
   6:../../libDaisy//src/per/qspi.h **** #include <cstdint>
   7:../../libDaisy//src/per/qspi.h **** #include "daisy_core.h" // Added for dsy_gpio_pin typedef
   8:../../libDaisy//src/per/qspi.h **** 
   9:../../libDaisy//src/per/qspi.h **** #define DSY_QSPI_TEXT       \
  10:../../libDaisy//src/per/qspi.h ****     __attribute__((section( \
  11:../../libDaisy//src/per/qspi.h ****         ".qspiflash_text"))) /**< used for reading memory in memory_mapped mode. */
  12:../../libDaisy//src/per/qspi.h **** #define DSY_QSPI_DATA       \
  13:../../libDaisy//src/per/qspi.h ****     __attribute__((section( \
  14:../../libDaisy//src/per/qspi.h ****         ".qspiflash_data"))) /**< used for reading memory in memory_mapped mode. */
  15:../../libDaisy//src/per/qspi.h **** #define DSY_QSPI_BSS        \
  16:../../libDaisy//src/per/qspi.h ****     __attribute__((section( \
  17:../../libDaisy//src/per/qspi.h ****         ".qspiflash_bss"))) /**< used for reading memory in memory_mapped mode. */
  18:../../libDaisy//src/per/qspi.h **** 
  19:../../libDaisy//src/per/qspi.h **** namespace daisy
  20:../../libDaisy//src/per/qspi.h **** {
  21:../../libDaisy//src/per/qspi.h **** /** @addtogroup serial
  22:../../libDaisy//src/per/qspi.h **** @{
  23:../../libDaisy//src/per/qspi.h **** */
  24:../../libDaisy//src/per/qspi.h **** 
  25:../../libDaisy//src/per/qspi.h **** /** 
  26:../../libDaisy//src/per/qspi.h ****  Driver for QSPI peripheral to interface with external flash memory. \n 
  27:../../libDaisy//src/per/qspi.h ****     Currently supported QSPI Devices: \n 
  28:../../libDaisy//src/per/qspi.h ****     * IS25LP080D
  29:../../libDaisy//src/per/qspi.h **** */
  30:../../libDaisy//src/per/qspi.h **** class QSPIHandle
  31:../../libDaisy//src/per/qspi.h **** {
  32:../../libDaisy//src/per/qspi.h ****   public:
  33:../../libDaisy//src/per/qspi.h ****     enum Result
  34:../../libDaisy//src/per/qspi.h ****     {
  35:../../libDaisy//src/per/qspi.h ****         OK = 0,
  36:../../libDaisy//src/per/qspi.h ****         ERR
  37:../../libDaisy//src/per/qspi.h ****     };
  38:../../libDaisy//src/per/qspi.h **** 
  39:../../libDaisy//src/per/qspi.h ****     /** Indicates the current status of the module. 
  40:../../libDaisy//src/per/qspi.h ****          *  Warnings are indicated by a leading W.
  41:../../libDaisy//src/per/qspi.h ****          *  Errors are indicated by a leading E and cause an immediate exit.
  42:../../libDaisy//src/per/qspi.h ****          * 
  43:../../libDaisy//src/per/qspi.h ****          *  \param GOOD - No errors have been reported.
  44:../../libDaisy//src/per/qspi.h ****          *  \param E_HAL_ERROR - HAL code did not return HAL_OK.
  45:../../libDaisy//src/per/qspi.h ****          *  \param E_SWITCHING_MODES - An error was encountered while switching QSPI peripheral mod
  46:../../libDaisy//src/per/qspi.h ****          *  \param E_INVALID_MODE - QSPI should not be written to while the program is executing fr
  47:../../libDaisy//src/per/qspi.h ****          */
  48:../../libDaisy//src/per/qspi.h ****     enum Status
  49:../../libDaisy//src/per/qspi.h ****     {
ARM GAS  /var/folders/5f/72p4brfx5932kssh4q_5ly0m0000gn/T//cc7WxlGd.s 			page 63


  50:../../libDaisy//src/per/qspi.h ****         GOOD = 0,
  51:../../libDaisy//src/per/qspi.h ****         E_HAL_ERROR,
  52:../../libDaisy//src/per/qspi.h ****         E_SWITCHING_MODES,
  53:../../libDaisy//src/per/qspi.h ****         E_INVALID_MODE,
  54:../../libDaisy//src/per/qspi.h ****     };
  55:../../libDaisy//src/per/qspi.h **** 
  56:../../libDaisy//src/per/qspi.h ****     /** Configuration structure for interfacing with QSPI Driver */
  57:../../libDaisy//src/per/qspi.h ****     struct Config
  58:../../libDaisy//src/per/qspi.h ****     {
  59:../../libDaisy//src/per/qspi.h ****         /** Flash Devices supported. (Both of these are more-or-less the same, just different sizes
  60:../../libDaisy//src/per/qspi.h ****         enum Device
  61:../../libDaisy//src/per/qspi.h ****         {
  62:../../libDaisy//src/per/qspi.h ****             IS25LP080D,  /**< & */
  63:../../libDaisy//src/per/qspi.h ****             IS25LP064A,  /**< & */
  64:../../libDaisy//src/per/qspi.h ****             DEVICE_LAST, /**< & */
  65:../../libDaisy//src/per/qspi.h ****         };
  66:../../libDaisy//src/per/qspi.h **** 
  67:../../libDaisy//src/per/qspi.h ****         /** 
  68:../../libDaisy//src/per/qspi.h ****         Modes of operation.
  69:../../libDaisy//src/per/qspi.h ****         Memory Mapped mode: QSPI configured so that the QSPI can be
  70:../../libDaisy//src/per/qspi.h ****         read from starting address 0x90000000. Writing is not
  71:../../libDaisy//src/per/qspi.h ****         possible in this mode. \n 
  72:../../libDaisy//src/per/qspi.h ****         Indirect Polling mode: Device driver enabled. 
  73:../../libDaisy//src/per/qspi.h ****         */
  74:../../libDaisy//src/per/qspi.h ****         enum Mode
  75:../../libDaisy//src/per/qspi.h ****         {
  76:../../libDaisy//src/per/qspi.h ****             MEMORY_MAPPED,    /**< & */
  77:../../libDaisy//src/per/qspi.h ****             INDIRECT_POLLING, /**< & */
  78:../../libDaisy//src/per/qspi.h ****             MODE_LAST,
  79:../../libDaisy//src/per/qspi.h ****         };
  80:../../libDaisy//src/per/qspi.h **** 
  81:../../libDaisy//src/per/qspi.h ****         //SCK,  CE# (active low)
  82:../../libDaisy//src/per/qspi.h ****         struct
  83:../../libDaisy//src/per/qspi.h ****         {
  84:../../libDaisy//src/per/qspi.h ****             dsy_gpio_pin io0; /**< & */
  85:../../libDaisy//src/per/qspi.h ****             dsy_gpio_pin io1; /**< & */
  86:../../libDaisy//src/per/qspi.h ****             dsy_gpio_pin io2; /**< & */
  87:../../libDaisy//src/per/qspi.h ****             dsy_gpio_pin io3; /**< & */
  88:../../libDaisy//src/per/qspi.h ****             dsy_gpio_pin clk; /**< & */
  89:../../libDaisy//src/per/qspi.h ****             dsy_gpio_pin ncs; /**< & */
  90:../../libDaisy//src/per/qspi.h ****         } pin_config;
  91:../../libDaisy//src/per/qspi.h **** 
  92:../../libDaisy//src/per/qspi.h ****         Device device;
  93:../../libDaisy//src/per/qspi.h ****         Mode   mode;
  94:../../libDaisy//src/per/qspi.h ****     };
  95:../../libDaisy//src/per/qspi.h **** 
  96:../../libDaisy//src/per/qspi.h ****     /** 
  97:../../libDaisy//src/per/qspi.h ****         Initializes QSPI peripheral, and Resets, and prepares memory for access.
  98:../../libDaisy//src/per/qspi.h ****         \param config should be populated with the mode, device and pin_config before calling this 
  99:../../libDaisy//src/per/qspi.h ****         \return Result::OK or Result::ERR
 100:../../libDaisy//src/per/qspi.h ****         */
 101:../../libDaisy//src/per/qspi.h ****     Result Init(const Config& config);
 102:../../libDaisy//src/per/qspi.h **** 
 103:../../libDaisy//src/per/qspi.h ****     /** Returns the current config. */
 104:../../libDaisy//src/per/qspi.h ****     const Config& GetConfig() const;
 105:../../libDaisy//src/per/qspi.h **** 
 106:../../libDaisy//src/per/qspi.h ****     // Couldn't this just be called before anything else in init? That
ARM GAS  /var/folders/5f/72p4brfx5932kssh4q_5ly0m0000gn/T//cc7WxlGd.s 			page 64


 107:../../libDaisy//src/per/qspi.h ****     // would make manually calling it unnecessary.
 108:../../libDaisy//src/per/qspi.h ****     /** 
 109:../../libDaisy//src/per/qspi.h ****         Deinitializes the peripheral
 110:../../libDaisy//src/per/qspi.h ****         This should be called before reinitializing QSPI in a different mode.
 111:../../libDaisy//src/per/qspi.h ****         \return Result::OK or Result::ERR
 112:../../libDaisy//src/per/qspi.h ****         */
 113:../../libDaisy//src/per/qspi.h ****     Result DeInit();
 114:../../libDaisy//src/per/qspi.h **** 
 115:../../libDaisy//src/per/qspi.h ****     /** 
 116:../../libDaisy//src/per/qspi.h ****         Writes a single page to to the specified address on the QSPI chip.
 117:../../libDaisy//src/per/qspi.h ****         For IS25LP*, page size is 256 bytes.
 118:../../libDaisy//src/per/qspi.h ****         \param address Address to write to
 119:../../libDaisy//src/per/qspi.h ****         \param size Buffer size
 120:../../libDaisy//src/per/qspi.h ****         \param buffer Buffer to write
 121:../../libDaisy//src/per/qspi.h ****         \return Result::OK or Result::ERR
 122:../../libDaisy//src/per/qspi.h ****         */
 123:../../libDaisy//src/per/qspi.h ****     Result WritePage(uint32_t address, uint32_t size, uint8_t* buffer);
 124:../../libDaisy//src/per/qspi.h **** 
 125:../../libDaisy//src/per/qspi.h ****     /** 
 126:../../libDaisy//src/per/qspi.h ****         Writes data in buffer to to the QSPI. Starting at address to address+size 
 127:../../libDaisy//src/per/qspi.h ****         \param address Address to write to
 128:../../libDaisy//src/per/qspi.h ****         \param size Buffer size
 129:../../libDaisy//src/per/qspi.h ****         \param buffer Buffer to write
 130:../../libDaisy//src/per/qspi.h ****         \return Result::OK or Result::ERR
 131:../../libDaisy//src/per/qspi.h ****         */
 132:../../libDaisy//src/per/qspi.h ****     Result Write(uint32_t address, uint32_t size, uint8_t* buffer);
 133:../../libDaisy//src/per/qspi.h **** 
 134:../../libDaisy//src/per/qspi.h ****     /** 
 135:../../libDaisy//src/per/qspi.h ****         Erases the area specified on the chip.
 136:../../libDaisy//src/per/qspi.h ****         Erasures will happen by 4K, 32K or 64K increments.
 137:../../libDaisy//src/per/qspi.h ****         Smallest erase possible is 4kB at a time. (on IS25LP*)
 138:../../libDaisy//src/per/qspi.h ****         \param start_addr Address to begin erasing from
 139:../../libDaisy//src/per/qspi.h ****         \param end_addr  Address to stop erasing at
 140:../../libDaisy//src/per/qspi.h ****         \return Result::OK or Result::ERR
 141:../../libDaisy//src/per/qspi.h ****         */
 142:../../libDaisy//src/per/qspi.h ****     Result Erase(uint32_t start_addr, uint32_t end_addr);
 143:../../libDaisy//src/per/qspi.h **** 
 144:../../libDaisy//src/per/qspi.h ****     /**  
 145:../../libDaisy//src/per/qspi.h ****          Erases a single sector of the chip.  
 146:../../libDaisy//src/per/qspi.h ****         TODO: Document the size of this function. 
 147:../../libDaisy//src/per/qspi.h ****         \param address Address of sector to erase
 148:../../libDaisy//src/per/qspi.h ****         \return Result::OK or Result::ERR
 149:../../libDaisy//src/per/qspi.h ****         */
 150:../../libDaisy//src/per/qspi.h ****     Result EraseSector(uint32_t address);
 151:../../libDaisy//src/per/qspi.h **** 
 152:../../libDaisy//src/per/qspi.h ****     /** Returns the current class status. Useful for debugging.
 153:../../libDaisy//src/per/qspi.h ****      *  \returns Status
 154:../../libDaisy//src/per/qspi.h ****      */
 155:../../libDaisy//src/per/qspi.h ****     Status GetStatus();
 156:../../libDaisy//src/per/qspi.h **** 
 157:../../libDaisy//src/per/qspi.h ****     /** Returns a pointer to the actual memory used 
 158:../../libDaisy//src/per/qspi.h ****      *  The memory at this address is read-only
 159:../../libDaisy//src/per/qspi.h ****      *  to write to it use the Write function.
 160:../../libDaisy//src/per/qspi.h ****      * 
 161:../../libDaisy//src/per/qspi.h ****      *  \param offset returns the pointer starting this 
 162:../../libDaisy//src/per/qspi.h ****      *                many bytes into the memory
 163:../../libDaisy//src/per/qspi.h ****     */
ARM GAS  /var/folders/5f/72p4brfx5932kssh4q_5ly0m0000gn/T//cc7WxlGd.s 			page 65


 164:../../libDaisy//src/per/qspi.h ****     void* GetData(uint32_t offset = 0);
 165:../../libDaisy//src/per/qspi.h **** 
 166:../../libDaisy//src/per/qspi.h ****     QSPIHandle() : pimpl_(nullptr) {}
 1514              		.loc 19 166 34 view .LVU416
 1515 0004 0025     		movs	r5, #0
 1516              	.LBE677:
 1517              	.LBE676:
 1518              	.LBE675:
 1519              	.LBE674:
 1520              	.LBE673:
 1521              	.LBE672:
 1522              	.LBE671:
  32:Application.cpp **** static DaisyPod hwPod; // Used for realtime audio and controls
 1523              		.loc 15 32 14 view .LVU417
 1524 0006 344F     		ldr	r7, .L111
 1525              	.LBB770:
 1526              	.LBB766:
 1527              	.LBB700:
 1528              	.LBB697:
 1529              	.LBB682:
 1530              	.LBB680:
 1531              	.LBB678:
 1532              		.loc 19 166 34 view .LVU418
 1533 0008 344C     		ldr	r4, .L111+4
 1534              	.LBE678:
 1535              	.LBE680:
 1536              	.LBE682:
 1537              	.LBE697:
 1538              	.LBE700:
 1539              	.LBE766:
 1540              	.LBE770:
  32:Application.cpp **** static DaisyPod hwPod; // Used for realtime audio and controls
 1541              		.loc 15 32 14 view .LVU419
 1542 000a 3A46     		mov	r2, r7
 1543 000c 3449     		ldr	r1, .L111+8
 1544 000e 2846     		mov	r0, r5
 1545              	.LBB771:
 1546              	.LBB772:
 1547              	.LBB773:
  26:FFT.h         ****     ~FFT() { freeBuffers(); }
 1548              		.loc 18 26 62 view .LVU420
 1549 0010 DFF8F480 		ldr	r8, .L111+48
 1550              	.LBE773:
 1551              	.LBE772:
 1552              	.LBE771:
  32:Application.cpp **** static DaisyPod hwPod; // Used for realtime audio and controls
 1553              		.loc 15 32 14 view .LVU421
 1554 0014 FFF7FEFF 		bl	__aeabi_atexit
 1555              	.LVL104:
 1556              	.LBB776:
 1557              	.LBI671:
  35:../../libDaisy//src/daisy_pod.h ****     ~DaisyPod() {}
 1558              		.loc 1 35 5 is_stmt 1 view .LVU422
 1559              	.LBB767:
 1560              	.LBB701:
 1561              	.LBI673:
  21:../../libDaisy//src/daisy_seed.h ****     ~DaisySeed() {}
ARM GAS  /var/folders/5f/72p4brfx5932kssh4q_5ly0m0000gn/T//cc7WxlGd.s 			page 66


 1562              		.loc 10 21 5 view .LVU423
 1563              	.LBB698:
 1564              	.LBB683:
 1565              	.LBI675:
 1566              		.loc 19 166 5 view .LVU424
 1567              	.LBE683:
 1568              	.LBE698:
 1569              	.LBE701:
 1570              	.LBB702:
 1571              	.LBB703:
 1572              	.LBB704:
 1573              	.LBB705:
 157:../../libDaisy//src/hid/midi.h **** 
 158:../../libDaisy//src/hid/midi.h ****     struct Config
 1574              		.loc 2 158 12 is_stmt 0 view .LVU425
 1575 0018 04F5C070 		add	r0, r4, #384
 1576              	.LBE705:
 1577              	.LBE704:
 1578              	.LBE703:
 1579              	.LBE702:
 1580              	.LBB745:
 1581              	.LBB699:
 1582              	.LBB684:
 1583              	.LBB681:
 1584              	.LBB679:
 1585              		.loc 19 166 34 view .LVU426
 1586 001c 2560     		str	r5, [r4]
 1587              	.LVL105:
 1588              		.loc 19 166 34 view .LVU427
 1589              	.LBE679:
 1590              	.LBE681:
 1591              	.LBE684:
 1592              	.LBB685:
 1593              	.LBI685:
  95:../../libDaisy//src/hid/audio.h ****     ~AudioHandle() {}
 1594              		.loc 14 95 5 is_stmt 1 view .LVU428
 1595              	.LBB686:
 1596              	.LBB687:
  95:../../libDaisy//src/hid/audio.h ****     ~AudioHandle() {}
 1597              		.loc 14 95 35 is_stmt 0 view .LVU429
 1598 001e 6561     		str	r5, [r4, #20]
 1599              	.LVL106:
  95:../../libDaisy//src/hid/audio.h ****     ~AudioHandle() {}
 1600              		.loc 14 95 35 view .LVU430
 1601              	.LBE687:
 1602              	.LBE686:
 1603              	.LBE685:
 1604              	.LBB688:
 1605              	.LBI688:
 109:../../libDaisy//src/per/adc.h ****     ~AdcHandle() {}
 1606              		.loc 13 109 5 is_stmt 1 view .LVU431
 109:../../libDaisy//src/per/adc.h ****     ~AdcHandle() {}
 1607              		.loc 13 109 5 is_stmt 0 view .LVU432
 1608              	.LBE688:
 1609              	.LBB689:
 1610              	.LBI689:
 1611              		.file 20 "../../libDaisy//src/per/dac.h"
ARM GAS  /var/folders/5f/72p4brfx5932kssh4q_5ly0m0000gn/T//cc7WxlGd.s 			page 67


   1:../../libDaisy//src/per/dac.h **** #pragma once
   2:../../libDaisy//src/per/dac.h **** #ifndef DSY_DAC_H
   3:../../libDaisy//src/per/dac.h **** #define DSY_DAC_H
   4:../../libDaisy//src/per/dac.h **** 
   5:../../libDaisy//src/per/dac.h **** #include "daisy_core.h"
   6:../../libDaisy//src/per/dac.h **** 
   7:../../libDaisy//src/per/dac.h **** namespace daisy
   8:../../libDaisy//src/per/dac.h **** {
   9:../../libDaisy//src/per/dac.h **** /** @brief DAC handle for Built-in DAC Peripheral 
  10:../../libDaisy//src/per/dac.h ****  *  @ingroup per_analog
  11:../../libDaisy//src/per/dac.h ****  ** 
  12:../../libDaisy//src/per/dac.h ****  ** For now only Normal Mode is supported,
  13:../../libDaisy//src/per/dac.h ****  ** Sample and hold mode provides reduced power consumption, but requires a bit more setup.
  14:../../libDaisy//src/per/dac.h ****  **
  15:../../libDaisy//src/per/dac.h ****  ** For now connecting the DAC through other internal peripherals is also not supported.
  16:../../libDaisy//src/per/dac.h ****  **
  17:../../libDaisy//src/per/dac.h ****  ** Since the DAC channels have dedicated pins we don't need to pass in a pin config like with
  18:../../libDaisy//src/per/dac.h ****  ** other modules. However, it is still important to not try to use the DAC pins for anything else.
  19:../../libDaisy//src/per/dac.h ****  ** DAC Channel 1 is on PA4, and DAC Channel 2 is on PA5
  20:../../libDaisy//src/per/dac.h ****  ***/
  21:../../libDaisy//src/per/dac.h **** class DacHandle
  22:../../libDaisy//src/per/dac.h **** {
  23:../../libDaisy//src/per/dac.h ****   public:
  24:../../libDaisy//src/per/dac.h ****     /** Return Values for the DacHandle class */
  25:../../libDaisy//src/per/dac.h ****     enum class Result
  26:../../libDaisy//src/per/dac.h ****     {
  27:../../libDaisy//src/per/dac.h ****         OK,
  28:../../libDaisy//src/per/dac.h ****         ERR,
  29:../../libDaisy//src/per/dac.h ****     };
  30:../../libDaisy//src/per/dac.h **** 
  31:../../libDaisy//src/per/dac.h ****     /** Selects which channel(s) will be configured for use. */
  32:../../libDaisy//src/per/dac.h ****     enum class Channel
  33:../../libDaisy//src/per/dac.h ****     {
  34:../../libDaisy//src/per/dac.h ****         ONE,
  35:../../libDaisy//src/per/dac.h ****         TWO,
  36:../../libDaisy//src/per/dac.h ****         BOTH,
  37:../../libDaisy//src/per/dac.h ****     };
  38:../../libDaisy//src/per/dac.h **** 
  39:../../libDaisy//src/per/dac.h ****     /** Sets the Mode for the DAC channels.
  40:../../libDaisy//src/per/dac.h ****      **
  41:../../libDaisy//src/per/dac.h ****      ** Polling mode uses the blocking mode to transmit a single value at a time.
  42:../../libDaisy//src/per/dac.h ****      **
  43:../../libDaisy//src/per/dac.h ****      ** DMA mode uses a buffer, and periodically transmits it triggering a 
  44:../../libDaisy//src/per/dac.h ****      ** callback to fill the buffer when it is ready for more samples.
  45:../../libDaisy//src/per/dac.h ****      ***/
  46:../../libDaisy//src/per/dac.h ****     enum class Mode
  47:../../libDaisy//src/per/dac.h ****     {
  48:../../libDaisy//src/per/dac.h ****         POLLING,
  49:../../libDaisy//src/per/dac.h ****         DMA,
  50:../../libDaisy//src/per/dac.h ****     };
  51:../../libDaisy//src/per/dac.h **** 
  52:../../libDaisy//src/per/dac.h ****     /** Sets the number of bits per sample transmitted out of the DAC.
  53:../../libDaisy//src/per/dac.h ****      ** The output range will be: 0V - VDDA
  54:../../libDaisy//src/per/dac.h ****      ** The resolution will be roughly: bitdepth / (VDDA - 0V) 
  55:../../libDaisy//src/per/dac.h ****      ***/
  56:../../libDaisy//src/per/dac.h ****     enum class BitDepth
  57:../../libDaisy//src/per/dac.h ****     {
ARM GAS  /var/folders/5f/72p4brfx5932kssh4q_5ly0m0000gn/T//cc7WxlGd.s 			page 68


  58:../../libDaisy//src/per/dac.h ****         BITS_8,
  59:../../libDaisy//src/per/dac.h ****         BITS_12
  60:../../libDaisy//src/per/dac.h ****     };
  61:../../libDaisy//src/per/dac.h **** 
  62:../../libDaisy//src/per/dac.h ****     /** Sets whether the DAC output is buffered for higher drive ability. */
  63:../../libDaisy//src/per/dac.h ****     enum class BufferState
  64:../../libDaisy//src/per/dac.h ****     {
  65:../../libDaisy//src/per/dac.h ****         ENABLED,
  66:../../libDaisy//src/per/dac.h ****         DISABLED,
  67:../../libDaisy//src/per/dac.h ****     };
  68:../../libDaisy//src/per/dac.h **** 
  69:../../libDaisy//src/per/dac.h ****     /** Configuration structure for initializing the DAC structure. */
  70:../../libDaisy//src/per/dac.h ****     struct Config
  71:../../libDaisy//src/per/dac.h ****     {
  72:../../libDaisy//src/per/dac.h ****         /** Target Samplerate in Hz used to configure the internal 
  73:../../libDaisy//src/per/dac.h ****          ** timebase for DMA mode. Does nothing in POLLING mode.
  74:../../libDaisy//src/per/dac.h ****          ** If the value is 0 at Init time this will default to 48000Hz 
  75:../../libDaisy//src/per/dac.h ****          ** otherwise the driver will attempt meet the target.*/
  76:../../libDaisy//src/per/dac.h ****         uint32_t target_samplerate;
  77:../../libDaisy//src/per/dac.h **** 
  78:../../libDaisy//src/per/dac.h ****         Channel     chn;
  79:../../libDaisy//src/per/dac.h ****         Mode        mode;
  80:../../libDaisy//src/per/dac.h ****         BitDepth    bitdepth;
  81:../../libDaisy//src/per/dac.h ****         BufferState buff_state;
  82:../../libDaisy//src/per/dac.h ****     };
  83:../../libDaisy//src/per/dac.h **** 
  84:../../libDaisy//src/per/dac.h ****     DacHandle() : pimpl_(nullptr) {}
 1612              		.loc 20 84 5 is_stmt 1 view .LVU433
 1613              	.LBB690:
 1614              	.LBB691:
 1615              		.loc 20 84 33 is_stmt 0 view .LVU434
 1616 0020 2562     		str	r5, [r4, #32]
 1617              	.LVL107:
 1618              		.loc 20 84 33 view .LVU435
 1619              	.LBE691:
 1620              	.LBE690:
 1621              	.LBE689:
 1622              	.LBB692:
 1623              	.LBI692:
  40:../../libDaisy//src/hid/usb.h **** 
 1624              		.loc 12 40 5 is_stmt 1 view .LVU436
  40:../../libDaisy//src/hid/usb.h **** 
 1625              		.loc 12 40 5 is_stmt 0 view .LVU437
 1626              	.LBE692:
 1627              	.LBB693:
 1628              	.LBI693:
  96:../../libDaisy//src/sys/system.h ****     ~System() {}
 1629              		.loc 11 96 5 is_stmt 1 view .LVU438
  96:../../libDaisy//src/sys/system.h ****     ~System() {}
 1630              		.loc 11 96 5 is_stmt 0 view .LVU439
 1631              	.LBE693:
 1632              	.LBB694:
 1633              	.LBI694:
 1634              		.file 21 "../../libDaisy//src/per/sai.h"
   1:../../libDaisy//src/per/sai.h **** #pragma once
   2:../../libDaisy//src/per/sai.h **** #ifndef DSY_SAI_H
   3:../../libDaisy//src/per/sai.h **** #define DSY_SAI_H
ARM GAS  /var/folders/5f/72p4brfx5932kssh4q_5ly0m0000gn/T//cc7WxlGd.s 			page 69


   4:../../libDaisy//src/per/sai.h **** 
   5:../../libDaisy//src/per/sai.h **** #include "daisy_core.h"
   6:../../libDaisy//src/per/sai.h **** 
   7:../../libDaisy//src/per/sai.h **** namespace daisy
   8:../../libDaisy//src/per/sai.h **** {
   9:../../libDaisy//src/per/sai.h **** /** 
  10:../../libDaisy//src/per/sai.h ****  * Support for I2S Audio Protocol with different bit-depth, samplerate options
  11:../../libDaisy//src/per/sai.h ****  * Allows for master or slave, as well as freedom of selecting direction, 
  12:../../libDaisy//src/per/sai.h ****  * and other behavior for each peripheral, and block.
  13:../../libDaisy//src/per/sai.h ****  * 
  14:../../libDaisy//src/per/sai.h ****  * DMA Transfer commands must use buffers located within non-cached memory or use cache maintenance
  15:../../libDaisy//src/per/sai.h ****  * To declare an unitialized global element in the DMA memory section:
  16:../../libDaisy//src/per/sai.h ****  *    int32_t DSY_DMA_BUFFER_SECTOR my_buffer[96];
  17:../../libDaisy//src/per/sai.h ****  *
  18:../../libDaisy//src/per/sai.h ****  * Callback functions will be called once per half of the buffer. In the above example, 
  19:../../libDaisy//src/per/sai.h ****  * the callback function would be called once for every 48 samples.
  20:../../libDaisy//src/per/sai.h ****  * 
  21:../../libDaisy//src/per/sai.h ****  * Use SAI Handle like this:
  22:../../libDaisy//src/per/sai.h ****  * 
  23:../../libDaisy//src/per/sai.h ****  *  SaiHandle::Config sai_config;
  24:../../libDaisy//src/per/sai.h ****  *  sai_config.periph          = SaiHandle::Config::Peripheral::SAI_1;
  25:../../libDaisy//src/per/sai.h ****  *  sai_config.sr              = SaiHandle::Config::SampleRate::SAI_48KHZ;
  26:../../libDaisy//src/per/sai.h ****  *  sai_config.bit_depth       = SaiHandle::Config::BitDepth::SAI_24BIT;
  27:../../libDaisy//src/per/sai.h ****  *  sai_config.a_sync          = SaiHandle::Config::Sync::MASTER;
  28:../../libDaisy//src/per/sai.h ****  *  sai_config.b_sync          = SaiHandle::Config::Sync::SLAVE;
  29:../../libDaisy//src/per/sai.h ****  *  sai_config.a_dir           = SaiHandle::Config::Direction::RECEIVE;
  30:../../libDaisy//src/per/sai.h ****  *  sai_config.b_dir           = SaiHandle::Config::Direction::TRANSMIT;
  31:../../libDaisy//src/per/sai.h ****  *  sai_config.pin_config.fs   = {DSY_GPIOE, 4};
  32:../../libDaisy//src/per/sai.h ****  *  sai_config.pin_config.mclk = {DSY_GPIOE, 2};
  33:../../libDaisy//src/per/sai.h ****  *  sai_config.pin_config.sck  = {DSY_GPIOE, 5};
  34:../../libDaisy//src/per/sai.h ****  *  sai_config.pin_config.sa   = {DSY_GPIOE, 6};
  35:../../libDaisy//src/per/sai.h ****  *  sai_config.pin_config.sb   = {DSY_GPIOE, 3};
  36:../../libDaisy//src/per/sai.h ****  *  // Then Initialize
  37:../../libDaisy//src/per/sai.h ****  *  SaiHandle sai;
  38:../../libDaisy//src/per/sai.h ****  *  sai.Init(sai_config);
  39:../../libDaisy//src/per/sai.h ****  *  // Now you can use it:
  40:../../libDaisy//src/per/sai.h ****  *  sai.StartDma(. . .);
  41:../../libDaisy//src/per/sai.h ****  */
  42:../../libDaisy//src/per/sai.h **** class SaiHandle
  43:../../libDaisy//src/per/sai.h **** {
  44:../../libDaisy//src/per/sai.h ****   public:
  45:../../libDaisy//src/per/sai.h ****     /** Contains settings for initialising an SAI Interface */
  46:../../libDaisy//src/per/sai.h ****     struct Config
  47:../../libDaisy//src/per/sai.h ****     {
  48:../../libDaisy//src/per/sai.h ****         /** Specifies the internal peripheral to use (mapped to different hardware pins) */
  49:../../libDaisy//src/per/sai.h ****         enum class Peripheral
  50:../../libDaisy//src/per/sai.h ****         {
  51:../../libDaisy//src/per/sai.h ****             SAI_1,
  52:../../libDaisy//src/per/sai.h ****             SAI_2,
  53:../../libDaisy//src/per/sai.h ****         };
  54:../../libDaisy//src/per/sai.h **** 
  55:../../libDaisy//src/per/sai.h ****         /** Rate at which samples will be streaming to/from the device. */
  56:../../libDaisy//src/per/sai.h ****         enum class SampleRate
  57:../../libDaisy//src/per/sai.h ****         {
  58:../../libDaisy//src/per/sai.h ****             SAI_8KHZ,
  59:../../libDaisy//src/per/sai.h ****             SAI_16KHZ,
  60:../../libDaisy//src/per/sai.h ****             SAI_32KHZ,
ARM GAS  /var/folders/5f/72p4brfx5932kssh4q_5ly0m0000gn/T//cc7WxlGd.s 			page 70


  61:../../libDaisy//src/per/sai.h ****             SAI_48KHZ,
  62:../../libDaisy//src/per/sai.h ****             SAI_96KHZ,
  63:../../libDaisy//src/per/sai.h ****         };
  64:../../libDaisy//src/per/sai.h **** 
  65:../../libDaisy//src/per/sai.h ****         /** Bit Depth that the hardware expects to be transferred to/from the device. */
  66:../../libDaisy//src/per/sai.h ****         enum class BitDepth
  67:../../libDaisy//src/per/sai.h ****         {
  68:../../libDaisy//src/per/sai.h ****             SAI_16BIT,
  69:../../libDaisy//src/per/sai.h ****             SAI_24BIT,
  70:../../libDaisy//src/per/sai.h ****             SAI_32BIT,
  71:../../libDaisy//src/per/sai.h ****         };
  72:../../libDaisy//src/per/sai.h **** 
  73:../../libDaisy//src/per/sai.h ****         /** Specifies whether a particular block is the master or the slave 
  74:../../libDaisy//src/per/sai.h ****          ** If both are set to slave, no MCLK signal will be used, and it is
  75:../../libDaisy//src/per/sai.h ****          ** expected that the codec will have its own xtal.
  76:../../libDaisy//src/per/sai.h ****          */
  77:../../libDaisy//src/per/sai.h ****         enum class Sync
  78:../../libDaisy//src/per/sai.h ****         {
  79:../../libDaisy//src/per/sai.h ****             MASTER,
  80:../../libDaisy//src/per/sai.h ****             SLAVE,
  81:../../libDaisy//src/per/sai.h ****         };
  82:../../libDaisy//src/per/sai.h **** 
  83:../../libDaisy//src/per/sai.h ****         /** Specifies the direction for each peripheral block. */
  84:../../libDaisy//src/per/sai.h ****         enum class Direction
  85:../../libDaisy//src/per/sai.h ****         {
  86:../../libDaisy//src/per/sai.h ****             TRANSMIT,
  87:../../libDaisy//src/per/sai.h ****             RECEIVE,
  88:../../libDaisy//src/per/sai.h ****         };
  89:../../libDaisy//src/per/sai.h **** 
  90:../../libDaisy//src/per/sai.h ****         Peripheral periph;
  91:../../libDaisy//src/per/sai.h ****         struct
  92:../../libDaisy//src/per/sai.h ****         {
  93:../../libDaisy//src/per/sai.h ****             dsy_gpio_pin mclk, fs, sck, sa, sb;
  94:../../libDaisy//src/per/sai.h ****         } pin_config;
  95:../../libDaisy//src/per/sai.h ****         SampleRate sr;
  96:../../libDaisy//src/per/sai.h ****         BitDepth   bit_depth;
  97:../../libDaisy//src/per/sai.h ****         Sync       a_sync, b_sync;
  98:../../libDaisy//src/per/sai.h ****         Direction  a_dir, b_dir;
  99:../../libDaisy//src/per/sai.h ****     };
 100:../../libDaisy//src/per/sai.h **** 
 101:../../libDaisy//src/per/sai.h ****     /** Return values for SAI functions */
 102:../../libDaisy//src/per/sai.h ****     enum class Result
 103:../../libDaisy//src/per/sai.h ****     {
 104:../../libDaisy//src/per/sai.h ****         OK,
 105:../../libDaisy//src/per/sai.h ****         ERR,
 106:../../libDaisy//src/per/sai.h ****     };
 107:../../libDaisy//src/per/sai.h **** 
 108:../../libDaisy//src/per/sai.h ****     SaiHandle() : pimpl_(nullptr) {}
 1635              		.loc 21 108 5 is_stmt 1 view .LVU440
 1636              	.LBB695:
 1637              	.LBB696:
 1638              		.loc 21 108 33 is_stmt 0 view .LVU441
 1639 0022 E563     		str	r5, [r4, #60]
 1640              	.LVL108:
 1641              		.loc 21 108 33 view .LVU442
 1642              	.LBE696:
 1643              	.LBE695:
ARM GAS  /var/folders/5f/72p4brfx5932kssh4q_5ly0m0000gn/T//cc7WxlGd.s 			page 71


 1644              	.LBE694:
 1645              	.LBE699:
 1646              	.LBE745:
 1647              	.LBB746:
 1648              	.LBI746:
  20:../../libDaisy//src/hid/encoder.h ****     ~Encoder() {}
 1649              		.loc 9 20 5 is_stmt 1 view .LVU443
 1650              	.LBB747:
 1651              	.LBB748:
 1652              	.LBI748:
  41:../../libDaisy//src/hid/switch.h ****     ~Switch() {}
 1653              		.loc 7 41 5 view .LVU444
  41:../../libDaisy//src/hid/switch.h ****     ~Switch() {}
 1654              		.loc 7 41 5 is_stmt 0 view .LVU445
 1655              	.LBE748:
 1656              	.LBE747:
 1657              	.LBE746:
 1658              	.LBB749:
 1659              	.LBI749:
  21:../../libDaisy//src/hid/ctrl.h ****     /** destructor */
 1660              		.loc 8 21 5 is_stmt 1 view .LVU446
  21:../../libDaisy//src/hid/ctrl.h ****     /** destructor */
 1661              		.loc 8 21 5 is_stmt 0 view .LVU447
 1662              	.LBE749:
 1663              	.LBB750:
 1664              	.LBI750:
  21:../../libDaisy//src/hid/ctrl.h ****     /** destructor */
 1665              		.loc 8 21 5 is_stmt 1 view .LVU448
  21:../../libDaisy//src/hid/ctrl.h ****     /** destructor */
 1666              		.loc 8 21 5 is_stmt 0 view .LVU449
 1667              	.LBE750:
 1668              	.LBB751:
 1669              	.LBI751:
  41:../../libDaisy//src/hid/switch.h ****     ~Switch() {}
 1670              		.loc 7 41 5 is_stmt 1 view .LVU450
  41:../../libDaisy//src/hid/switch.h ****     ~Switch() {}
 1671              		.loc 7 41 5 is_stmt 0 view .LVU451
 1672              	.LBE751:
 1673              	.LBB752:
 1674              	.LBI752:
  41:../../libDaisy//src/hid/switch.h ****     ~Switch() {}
 1675              		.loc 7 41 5 is_stmt 1 view .LVU452
  41:../../libDaisy//src/hid/switch.h ****     ~Switch() {}
 1676              		.loc 7 41 5 is_stmt 0 view .LVU453
 1677              	.LBE752:
 1678              	.LBB753:
 1679              	.LBI753:
  17:../../libDaisy//src/hid/rgb_led.h ****     ~RgbLed() {}
 1680              		.loc 5 17 5 is_stmt 1 view .LVU454
 1681              	.LBB754:
 1682              	.LBB755:
 1683              	.LBI755:
  24:../../libDaisy//src/hid/led.h ****     ~Led() {}
 1684              		.loc 6 24 5 view .LVU455
  24:../../libDaisy//src/hid/led.h ****     ~Led() {}
 1685              		.loc 6 24 5 is_stmt 0 view .LVU456
 1686              	.LBE755:
ARM GAS  /var/folders/5f/72p4brfx5932kssh4q_5ly0m0000gn/T//cc7WxlGd.s 			page 72


 1687              	.LBB756:
 1688              	.LBI756:
  24:../../libDaisy//src/hid/led.h ****     ~Led() {}
 1689              		.loc 6 24 5 is_stmt 1 view .LVU457
  24:../../libDaisy//src/hid/led.h ****     ~Led() {}
 1690              		.loc 6 24 5 is_stmt 0 view .LVU458
 1691              	.LBE756:
 1692              	.LBB757:
 1693              	.LBI757:
  24:../../libDaisy//src/hid/led.h ****     ~Led() {}
 1694              		.loc 6 24 5 is_stmt 1 view .LVU459
  24:../../libDaisy//src/hid/led.h ****     ~Led() {}
 1695              		.loc 6 24 5 is_stmt 0 view .LVU460
 1696              	.LBE757:
 1697              	.LBE754:
 1698              	.LBE753:
 1699              	.LBB758:
 1700              	.LBI758:
  17:../../libDaisy//src/hid/rgb_led.h ****     ~RgbLed() {}
 1701              		.loc 5 17 5 is_stmt 1 view .LVU461
 1702              	.LBB759:
 1703              	.LBB760:
 1704              	.LBI760:
  24:../../libDaisy//src/hid/led.h ****     ~Led() {}
 1705              		.loc 6 24 5 view .LVU462
  24:../../libDaisy//src/hid/led.h ****     ~Led() {}
 1706              		.loc 6 24 5 is_stmt 0 view .LVU463
 1707              	.LBE760:
 1708              	.LBB761:
 1709              	.LBI761:
  24:../../libDaisy//src/hid/led.h ****     ~Led() {}
 1710              		.loc 6 24 5 is_stmt 1 view .LVU464
  24:../../libDaisy//src/hid/led.h ****     ~Led() {}
 1711              		.loc 6 24 5 is_stmt 0 view .LVU465
 1712              	.LBE761:
 1713              	.LBB762:
 1714              	.LBI762:
  24:../../libDaisy//src/hid/led.h ****     ~Led() {}
 1715              		.loc 6 24 5 is_stmt 1 view .LVU466
  24:../../libDaisy//src/hid/led.h ****     ~Led() {}
 1716              		.loc 6 24 5 is_stmt 0 view .LVU467
 1717              	.LBE762:
 1718              	.LBE759:
 1719              	.LBE758:
 1720              	.LBB763:
 1721              	.LBI702:
 155:../../libDaisy//src/hid/midi.h ****     ~MidiHandler() {}
 1722              		.loc 2 155 5 is_stmt 1 view .LVU468
 1723              	.LBB742:
 1724              	.LBB707:
 1725              	.LBI704:
 1726              		.loc 2 158 12 view .LVU469
 1727              	.LBB706:
 1728 0024 FFF7FEFF 		bl	_ZN5daisy17MidiUartTransport6ConfigC1Ev
 1729              	.LVL109:
 1730              		.loc 2 158 12 is_stmt 0 view .LVU470
 1731              	.LBE706:
ARM GAS  /var/folders/5f/72p4brfx5932kssh4q_5ly0m0000gn/T//cc7WxlGd.s 			page 73


 1732              	.LBE707:
 1733              	.LBB708:
 1734              	.LBI708:
  31:../../libDaisy//src/hid/midi.h ****     ~MidiUartTransport() {}
 1735              		.loc 2 31 5 is_stmt 1 view .LVU471
 1736              	.LBB709:
 1737              	.LBB710:
 1738              	.LBI710:
 1739              		.file 22 "../../libDaisy//src/per/uart.h"
   1:../../libDaisy//src/per/uart.h **** /* 
   2:../../libDaisy//src/per/uart.h **** TODO
   3:../../libDaisy//src/per/uart.h **** - Overflow handling, etc. for Rx Queue.
   4:../../libDaisy//src/per/uart.h **** */
   5:../../libDaisy//src/per/uart.h **** 
   6:../../libDaisy//src/per/uart.h **** #pragma once
   7:../../libDaisy//src/per/uart.h **** #ifndef DSY_UART_H
   8:../../libDaisy//src/per/uart.h **** #define DSY_UART_H /**< macro */
   9:../../libDaisy//src/per/uart.h **** #include "daisy_core.h"
  10:../../libDaisy//src/per/uart.h **** 
  11:../../libDaisy//src/per/uart.h **** 
  12:../../libDaisy//src/per/uart.h **** namespace daisy
  13:../../libDaisy//src/per/uart.h **** {
  14:../../libDaisy//src/per/uart.h **** /** @addtogroup serial
  15:../../libDaisy//src/per/uart.h ****     @{
  16:../../libDaisy//src/per/uart.h ****     */
  17:../../libDaisy//src/per/uart.h **** 
  18:../../libDaisy//src/per/uart.h **** /** 
  19:../../libDaisy//src/per/uart.h ****     Uart Peripheral
  20:../../libDaisy//src/per/uart.h ****     @author shensley
  21:../../libDaisy//src/per/uart.h ****     @date March 2020
  22:../../libDaisy//src/per/uart.h ****     */
  23:../../libDaisy//src/per/uart.h **** class UartHandler
  24:../../libDaisy//src/per/uart.h **** {
  25:../../libDaisy//src/per/uart.h ****   public:
  26:../../libDaisy//src/per/uart.h ****     struct Config
  27:../../libDaisy//src/per/uart.h ****     {
  28:../../libDaisy//src/per/uart.h ****         enum class Peripheral
  29:../../libDaisy//src/per/uart.h ****         {
  30:../../libDaisy//src/per/uart.h ****             USART_1,
  31:../../libDaisy//src/per/uart.h ****             USART_2,
  32:../../libDaisy//src/per/uart.h ****             USART_3,
  33:../../libDaisy//src/per/uart.h ****             UART_4,
  34:../../libDaisy//src/per/uart.h ****             UART_5,
  35:../../libDaisy//src/per/uart.h ****             USART_6,
  36:../../libDaisy//src/per/uart.h ****             UART_7,
  37:../../libDaisy//src/per/uart.h ****             UART_8,
  38:../../libDaisy//src/per/uart.h ****             LPUART_1,
  39:../../libDaisy//src/per/uart.h ****         };
  40:../../libDaisy//src/per/uart.h **** 
  41:../../libDaisy//src/per/uart.h ****         enum class StopBits
  42:../../libDaisy//src/per/uart.h ****         {
  43:../../libDaisy//src/per/uart.h ****             BITS_0_5,
  44:../../libDaisy//src/per/uart.h ****             BITS_1,
  45:../../libDaisy//src/per/uart.h ****             BITS_1_5,
  46:../../libDaisy//src/per/uart.h ****             BITS_2,
  47:../../libDaisy//src/per/uart.h ****         };
  48:../../libDaisy//src/per/uart.h **** 
ARM GAS  /var/folders/5f/72p4brfx5932kssh4q_5ly0m0000gn/T//cc7WxlGd.s 			page 74


  49:../../libDaisy//src/per/uart.h ****         enum class Parity
  50:../../libDaisy//src/per/uart.h ****         {
  51:../../libDaisy//src/per/uart.h ****             NONE,
  52:../../libDaisy//src/per/uart.h ****             EVEN,
  53:../../libDaisy//src/per/uart.h ****             ODD,
  54:../../libDaisy//src/per/uart.h ****         };
  55:../../libDaisy//src/per/uart.h **** 
  56:../../libDaisy//src/per/uart.h ****         enum class Mode
  57:../../libDaisy//src/per/uart.h ****         {
  58:../../libDaisy//src/per/uart.h ****             RX,
  59:../../libDaisy//src/per/uart.h ****             TX,
  60:../../libDaisy//src/per/uart.h ****             TX_RX,
  61:../../libDaisy//src/per/uart.h ****         };
  62:../../libDaisy//src/per/uart.h **** 
  63:../../libDaisy//src/per/uart.h ****         enum class WordLength
  64:../../libDaisy//src/per/uart.h ****         {
  65:../../libDaisy//src/per/uart.h ****             BITS_7,
  66:../../libDaisy//src/per/uart.h ****             BITS_8,
  67:../../libDaisy//src/per/uart.h ****             BITS_9,
  68:../../libDaisy//src/per/uart.h ****         };
  69:../../libDaisy//src/per/uart.h **** 
  70:../../libDaisy//src/per/uart.h ****         struct
  71:../../libDaisy//src/per/uart.h ****         {
  72:../../libDaisy//src/per/uart.h ****             dsy_gpio_pin tx; /**< & */
  73:../../libDaisy//src/per/uart.h ****             dsy_gpio_pin rx; /**< & */
  74:../../libDaisy//src/per/uart.h ****         } pin_config;        /**< & */
  75:../../libDaisy//src/per/uart.h **** 
  76:../../libDaisy//src/per/uart.h ****         Config()
  77:../../libDaisy//src/per/uart.h ****         {
  78:../../libDaisy//src/per/uart.h ****             // user must init periph, pin_config, and mode
  79:../../libDaisy//src/per/uart.h ****             stopbits   = StopBits::BITS_1;
  80:../../libDaisy//src/per/uart.h ****             parity     = Parity::NONE;
  81:../../libDaisy//src/per/uart.h ****             wordlength = WordLength::BITS_8;
  82:../../libDaisy//src/per/uart.h ****             baudrate   = 31250;
  83:../../libDaisy//src/per/uart.h ****         }
  84:../../libDaisy//src/per/uart.h **** 
  85:../../libDaisy//src/per/uart.h ****         Peripheral periph;
  86:../../libDaisy//src/per/uart.h ****         StopBits   stopbits;
  87:../../libDaisy//src/per/uart.h ****         Parity     parity;
  88:../../libDaisy//src/per/uart.h ****         Mode       mode;
  89:../../libDaisy//src/per/uart.h ****         WordLength wordlength;
  90:../../libDaisy//src/per/uart.h ****         uint32_t   baudrate;
  91:../../libDaisy//src/per/uart.h ****     };
  92:../../libDaisy//src/per/uart.h **** 
  93:../../libDaisy//src/per/uart.h **** 
  94:../../libDaisy//src/per/uart.h ****     UartHandler() : pimpl_(nullptr) {}
 1740              		.loc 22 94 5 view .LVU472
 1741              		.loc 22 94 5 is_stmt 0 view .LVU473
 1742              	.LBE710:
 1743              	.LBE709:
 1744              	.LBE708:
 1745              	.LBB715:
 1746              	.LBI715:
  18:../../libDaisy//src/hid/midi_parser.h ****     ~MidiParser() {}
 1747              		.loc 4 18 5 is_stmt 1 view .LVU474
 1748              	.LBB716:
  18:../../libDaisy//src/hid/midi_parser.h ****     ~MidiParser() {}
ARM GAS  /var/folders/5f/72p4brfx5932kssh4q_5ly0m0000gn/T//cc7WxlGd.s 			page 75


 1749              		.loc 4 18 17 is_stmt 0 view .LVU475
 1750 0028 2E4A     		ldr	r2, .L111+12
 1751 002a 40F20F73 		movw	r3, #1807
 1752              	.LBE716:
 1753              	.LBE715:
 1754              	.LBE742:
 1755              	.LBE763:
 1756              	.LBE767:
 1757              	.LBE776:
  33:Application.cpp **** static uint32_t  start, end, dur;
 1758              		.loc 15 33 17 view .LVU476
 1759 002e 2E49     		ldr	r1, .L111+16
 1760 0030 2046     		mov	r0, r4
 1761              	.LBB777:
 1762              	.LBB768:
 1763              	.LBB764:
 1764              	.LBB743:
 1765              	.LBB719:
 1766              	.LBB717:
  18:../../libDaisy//src/hid/midi_parser.h ****     ~MidiParser() {}
 1767              		.loc 4 18 17 view .LVU477
 1768 0032 C4F83822 		str	r2, [r4, #568]
 1769              	.LBE717:
 1770              	.LBE719:
 1771              	.LBB720:
 1772              	.LBB721:
 1773              	.LBB722:
 1774              	.LBB723:
 1775              	.LBB724:
  15:../../libDaisy//src/util/FIFO.h ****     {
 1776              		.loc 3 15 75 view .LVU478
 1777 0036 04F51472 		add	r2, r4, #592
 1778              	.LBE724:
 1779              	.LBE723:
 1780              	.LBE722:
 1781              	.LBE721:
 1782              	.LBE720:
 1783              	.LBB737:
 1784              	.LBB718:
  18:../../libDaisy//src/hid/midi_parser.h ****     ~MidiParser() {}
 1785              		.loc 4 18 17 view .LVU479
 1786 003a A4F83C32 		strh	r3, [r4, #572]	@ movhi
 1787              	.LVL110:
  18:../../libDaisy//src/hid/midi_parser.h ****     ~MidiParser() {}
 1788              		.loc 4 18 17 view .LVU480
 1789              	.LBE718:
 1790              	.LBE737:
 1791              	.LBB738:
 1792              	.LBI720:
 299:../../libDaisy//src/util/FIFO.h **** {
 300:../../libDaisy//src/util/FIFO.h ****   public:
 301:../../libDaisy//src/util/FIFO.h ****     /** Creates an empty FIFO */
 302:../../libDaisy//src/util/FIFO.h ****     FIFO() : FIFOBase<T>(buffer_, capacity + 1) {}
 1793              		.loc 3 302 5 is_stmt 1 view .LVU481
 1794              	.LBB734:
 1795              	.LBB731:
 1796              	.LBI722:
ARM GAS  /var/folders/5f/72p4brfx5932kssh4q_5ly0m0000gn/T//cc7WxlGd.s 			page 76


  14:../../libDaisy//src/util/FIFO.h ****     : buffer_(buffer), bufferSize_(bufferSize), bufferIn_(0), bufferOut_(0)
 1797              		.loc 3 14 5 view .LVU482
 1798              	.LBB728:
 1799              	.LBB725:
  15:../../libDaisy//src/util/FIFO.h ****     {
 1800              		.loc 3 15 75 is_stmt 0 view .LVU483
 1801 003e 40F20113 		movw	r3, #257
 1802              	.LBE725:
 1803              	.LBE728:
 1804              	.LBE731:
 1805              	.LBE734:
 1806              	.LBE738:
 1807              	.LBB739:
 1808              	.LBB714:
 1809              	.LBB713:
 1810              	.LBB711:
 1811              	.LBB712:
 1812              		.loc 22 94 35 view .LVU484
 1813 0042 C4F89051 		str	r5, [r4, #400]
 1814              	.LBE712:
 1815              	.LBE711:
 1816              	.LBE713:
 1817              	.LBE714:
 1818              	.LBE739:
 1819              	.LBB740:
 1820              	.LBB735:
 1821              	.LBB732:
 1822              	.LBB729:
 1823              	.LBB726:
  15:../../libDaisy//src/util/FIFO.h ****     {
 1824              		.loc 3 15 75 view .LVU485
 1825 0046 C4F84852 		str	r5, [r4, #584]
 1826 004a C4F84C52 		str	r5, [r4, #588]
 1827              	.LVL111:
  15:../../libDaisy//src/util/FIFO.h ****     {
 1828              		.loc 3 15 75 view .LVU486
 1829              	.LBE726:
 1830              	.LBE729:
 1831              	.LBE732:
 1832              	.LBE735:
 1833              	.LBE740:
 1834              	.LBE743:
 1835              	.LBE764:
 1836              	.LBE768:
 1837              	.LBE777:
 1838              	.LBB778:
 1839              	.LBB779:
 1840              	.LBB780:
  32:FFTMonitor.h  ****     {  
 1841              		.loc 16 32 83 view .LVU487
 1842 004e 274E     		ldr	r6, .L111+20
 1843              	.LBE780:
 1844              	.LBE779:
 1845              	.LBE778:
 1846              	.LBB803:
 1847              	.LBB769:
 1848              	.LBB765:
ARM GAS  /var/folders/5f/72p4brfx5932kssh4q_5ly0m0000gn/T//cc7WxlGd.s 			page 77


 1849              	.LBB744:
 1850              	.LBB741:
 1851              	.LBB736:
 1852              	.LBB733:
 1853              	.LBB730:
 1854              	.LBB727:
  15:../../libDaisy//src/util/FIFO.h ****     {
 1855              		.loc 3 15 75 view .LVU488
 1856 0050 C4E99023 		strd	r2, r3, [r4, #576]
 1857              	.LBE727:
 1858              	.LBE730:
 1859              	.LBE733:
 1860              	.LBE736:
 1861              	.LBE741:
 1862              	.LBE744:
 1863              	.LBE765:
 1864              	.LBE769:
 1865              	.LBE803:
  33:Application.cpp **** static uint32_t  start, end, dur;
 1866              		.loc 15 33 17 view .LVU489
 1867 0054 3A46     		mov	r2, r7
 1868 0056 FFF7FEFF 		bl	__aeabi_atexit
 1869              	.LVL112:
 1870              	.LBB804:
 1871              	.LBI771:
  26:FFT.h         ****     ~FFT() { freeBuffers(); }
 1872              		.loc 18 26 5 is_stmt 1 view .LVU490
 1873              	.LBE804:
  35:Application.cpp **** static FFTMonitor fftMonitor(&hwPod, &fft);
 1874              		.loc 15 35 12 is_stmt 0 view .LVU491
 1875 005a 3A46     		mov	r2, r7
 1876 005c 2449     		ldr	r1, .L111+24
 1877 005e 4046     		mov	r0, r8
 1878              	.LBB805:
 1879              	.LBB775:
 1880              	.LBB774:
  26:FFT.h         ****     ~FFT() { freeBuffers(); }
 1881              		.loc 18 26 62 view .LVU492
 1882 0060 C8E90055 		strd	r5, r5, [r8]
 1883 0064 C8E90255 		strd	r5, r5, [r8, #8]
 1884              	.LVL113:
  26:FFT.h         ****     ~FFT() { freeBuffers(); }
 1885              		.loc 18 26 62 view .LVU493
 1886              	.LBE774:
 1887              	.LBE775:
 1888              	.LBE805:
  35:Application.cpp **** static FFTMonitor fftMonitor(&hwPod, &fft);
 1889              		.loc 15 35 12 view .LVU494
 1890 0068 FFF7FEFF 		bl	__aeabi_atexit
 1891              	.LVL114:
 1892              	.LBB806:
 1893              	.LBI778:
  31:FFTMonitor.h  **** 	                                        win(FFT_SIZE, WindowFunction::RECTANGULAR)	
 1894              		.loc 16 31 5 is_stmt 1 view .LVU495
 1895              	.LBB800:
 1896              	.LBB794:
 1897              	.LBB781:
ARM GAS  /var/folders/5f/72p4brfx5932kssh4q_5ly0m0000gn/T//cc7WxlGd.s 			page 78


 1898              	.LBI781:
  19:Window.h      ****         : N(size), winType(type)
 1899              		.loc 17 19 5 view .LVU496
 1900              	.LBE781:
 1901              	.LBE794:
  31:FFTMonitor.h  **** 	                                        win(FFT_SIZE, WindowFunction::RECTANGULAR)	
 1902              		.loc 16 31 43 is_stmt 0 view .LVU497
 1903 006c 4FF48053 		mov	r3, #4096
 1904              	.LBB795:
 1905              	.LBB790:
 1906              	.LBB782:
 1907              	.LBB783:
  22:Window.h      ****         computeCoefficients();
 1908              		.loc 17 22 29 view .LVU498
 1909 0070 4FF48040 		mov	r0, #16384
 1910              	.LBE783:
 1911              	.LBE782:
 1912              	.LBE790:
 1913              	.LBE795:
  31:FFTMonitor.h  **** 	                                        win(FFT_SIZE, WindowFunction::RECTANGULAR)	
 1914              		.loc 16 31 43 view .LVU499
 1915 0074 F361     		str	r3, [r6, #28]
 1916              	.LBB796:
 1917              	.LBB791:
 1918              	.LBB787:
 1919              	.LBB784:
  22:Window.h      ****         computeCoefficients();
 1920              		.loc 17 22 9 is_stmt 1 view .LVU500
 1921              	.LBE784:
 1922              	.LBE787:
 1923              	.LBE791:
 1924              	.LBE796:
  31:FFTMonitor.h  **** 	                                        win(FFT_SIZE, WindowFunction::RECTANGULAR)	
 1925              		.loc 16 31 43 is_stmt 0 view .LVU501
 1926 0076 C6E90055 		strd	r5, r5, [r6]
 1927              	.LBB797:
 1928              	.LBB792:
 1929              	.LBB788:
 1930              	.LBB785:
  22:Window.h      ****         computeCoefficients();
 1931              		.loc 17 22 29 view .LVU502
 1932 007a FFF7FEFF 		bl	_Znaj
 1933              	.LVL115:
  22:Window.h      ****         computeCoefficients();
 1934              		.loc 17 22 16 view .LVU503
 1935 007e 3062     		str	r0, [r6, #32]
  23:Window.h      ****     }
 1936              		.loc 17 23 9 is_stmt 1 view .LVU504
  23:Window.h      ****     }
 1937              		.loc 17 23 28 is_stmt 0 view .LVU505
 1938 0080 06F11C00 		add	r0, r6, #28
 1939              	.LBE785:
 1940              	.LBE788:
 1941              	.LBE792:
 1942              	.LBE797:
 1943              	.LBE800:
 1944              	.LBE806:
ARM GAS  /var/folders/5f/72p4brfx5932kssh4q_5ly0m0000gn/T//cc7WxlGd.s 			page 79


  39:Application.cpp **** static Controller controller(&equalizerLeft, &equalizerRight, &hwPod);
 1945              		.loc 15 39 18 view .LVU506
 1946 0084 1B4D     		ldr	r5, .L111+28
 1947              	.LBB807:
 1948              	.LBB801:
 1949              	.LBB798:
 1950              	.LBB793:
 1951              	.LBB789:
 1952              	.LBB786:
  23:Window.h      ****     }
 1953              		.loc 17 23 28 view .LVU507
 1954 0086 FFF7FEFF 		bl	_ZN14WindowFunction19computeCoefficientsEv
 1955              	.LVL116:
  23:Window.h      ****     }
 1956              		.loc 17 23 28 view .LVU508
 1957              	.LBE786:
 1958              	.LBE789:
 1959              	.LBE793:
  34:FFTMonitor.h  ****         pFFT = fft;
 1960              		.loc 16 34 9 is_stmt 1 view .LVU509
 1961              	.LBE798:
 1962              	.LBE801:
 1963              	.LBE807:
  36:Application.cpp **** 
 1964              		.loc 15 36 19 is_stmt 0 view .LVU510
 1965 008a 3046     		mov	r0, r6
 1966 008c 3A46     		mov	r2, r7
 1967 008e 1A49     		ldr	r1, .L111+32
 1968              	.LBB808:
 1969              	.LBB802:
 1970              	.LBB799:
  35:FFTMonitor.h  ****     };
 1971              		.loc 16 35 14 view .LVU511
 1972 0090 C6E90548 		strd	r4, r8, [r6, #20]
 1973              	.LVL117:
  35:FFTMonitor.h  ****     };
 1974              		.loc 16 35 14 view .LVU512
 1975              	.LBE799:
 1976              	.LBE802:
 1977              	.LBE808:
  38:Application.cpp **** static Equalizer equalizerRight;
 1978              		.loc 15 38 18 view .LVU513
 1979 0094 194E     		ldr	r6, .L111+36
  36:Application.cpp **** 
 1980              		.loc 15 36 19 view .LVU514
 1981 0096 FFF7FEFF 		bl	__aeabi_atexit
 1982              	.LVL118:
  40:Application.cpp **** 
 1983              		.loc 15 40 69 view .LVU515
 1984 009a DFF87080 		ldr	r8, .L111+52
  38:Application.cpp **** static Equalizer equalizerRight;
 1985              		.loc 15 38 18 view .LVU516
 1986 009e 3046     		mov	r0, r6
 1987 00a0 FFF7FEFF 		bl	_ZN9EqualizerC1Ev
 1988              	.LVL119:
 1989 00a4 3A46     		mov	r2, r7
 1990 00a6 1649     		ldr	r1, .L111+40
ARM GAS  /var/folders/5f/72p4brfx5932kssh4q_5ly0m0000gn/T//cc7WxlGd.s 			page 80


 1991 00a8 3046     		mov	r0, r6
 1992 00aa FFF7FEFF 		bl	__aeabi_atexit
 1993              	.LVL120:
  39:Application.cpp **** static Controller controller(&equalizerLeft, &equalizerRight, &hwPod);
 1994              		.loc 15 39 18 view .LVU517
 1995 00ae 2846     		mov	r0, r5
 1996 00b0 FFF7FEFF 		bl	_ZN9EqualizerC1Ev
 1997              	.LVL121:
 1998 00b4 3A46     		mov	r2, r7
 1999 00b6 1249     		ldr	r1, .L111+40
 2000 00b8 2846     		mov	r0, r5
 2001 00ba FFF7FEFF 		bl	__aeabi_atexit
 2002              	.LVL122:
  40:Application.cpp **** 
 2003              		.loc 15 40 69 view .LVU518
 2004 00be 3146     		mov	r1, r6
 2005 00c0 2A46     		mov	r2, r5
 2006 00c2 2346     		mov	r3, r4
 2007 00c4 4046     		mov	r0, r8
 2008 00c6 FFF7FEFF 		bl	_ZN10ControllerC1EP9EqualizerS1_PN5daisy8DaisyPodE
 2009              	.LVL123:
  40:Application.cpp **** 
 2010              		.loc 15 40 19 view .LVU519
 2011 00ca 3A46     		mov	r2, r7
 2012 00cc 4046     		mov	r0, r8
 2013 00ce 0D49     		ldr	r1, .L111+44
 2014              	.LBE809:
 2015              	.LBE811:
 2016              		.loc 15 220 1 view .LVU520
 2017 00d0 BDE8F041 		pop	{r4, r5, r6, r7, r8, lr}
 2018              		.cfi_restore 14
 2019              		.cfi_restore 8
 2020              		.cfi_restore 7
 2021              		.cfi_restore 6
 2022              		.cfi_restore 5
 2023              		.cfi_restore 4
 2024              		.cfi_def_cfa_offset 0
 2025              	.LBB812:
 2026              	.LBB810:
  40:Application.cpp **** 
 2027              		.loc 15 40 19 view .LVU521
 2028 00d4 FFF7FEBF 		b	__aeabi_atexit
 2029              	.LVL124:
 2030              	.L112:
 2031              		.align	2
 2032              	.L111:
 2033 00d8 00000000 		.word	__dso_handle
 2034 00dc 00000000 		.word	_ZL5hwPod
 2035 00e0 00000000 		.word	__tcf_0
 2036 00e4 0080707F 		.word	2138079232
 2037 00e8 00000000 		.word	_ZN5daisy8DaisyPodD1Ev
 2038 00ec 00000000 		.word	_ZL10fftMonitor
 2039 00f0 00000000 		.word	_ZN3FFTD1Ev
 2040 00f4 00000000 		.word	.LANCHOR2
 2041 00f8 00000000 		.word	_ZN10FFTMonitorD1Ev
 2042 00fc 00000000 		.word	.LANCHOR1
 2043 0100 00000000 		.word	_ZN9EqualizerD1Ev
ARM GAS  /var/folders/5f/72p4brfx5932kssh4q_5ly0m0000gn/T//cc7WxlGd.s 			page 81


 2044 0104 00000000 		.word	_ZN10ControllerD1Ev
 2045 0108 00000000 		.word	.LANCHOR0
 2046 010c 00000000 		.word	.LANCHOR3
 2047              	.LBE810:
 2048              	.LBE812:
 2049              		.cfi_endproc
 2050              	.LFE5333:
 2052              		.section	.init_array,"aw",%init_array
 2053              		.align	2
 2054 0000 00000000 		.word	_GLOBAL__sub_I__Z13AudioCallbackPKPKfPPfj(target1)
 2055              		.section	.text._Z13AudioCallbackPKPKfPPfj,"ax",%progbits
 2056              		.align	1
 2057              		.p2align 2,,3
 2058              		.global	_Z13AudioCallbackPKPKfPPfj
 2059              		.syntax unified
 2060              		.thumb
 2061              		.thumb_func
 2063              	_Z13AudioCallbackPKPKfPPfj:
 2064              	.LVL125:
 2065              	.LFB4741:
  43:Application.cpp **** 	start = System::GetTick();
 2066              		.loc 15 43 1 is_stmt 1 view -0
 2067              		.cfi_startproc
 2068              		@ args = 0, pretend = 0, frame = 0
 2069              		@ frame_needed = 0, uses_anonymous_args = 0
  44:Application.cpp **** 
 2070              		.loc 15 44 2 view .LVU523
  43:Application.cpp **** 	start = System::GetTick();
 2071              		.loc 15 43 1 is_stmt 0 view .LVU524
 2072 0000 2DE9F843 		push	{r3, r4, r5, r6, r7, r8, r9, lr}
 2073              		.cfi_def_cfa_offset 32
 2074              		.cfi_offset 3, -32
 2075              		.cfi_offset 4, -28
 2076              		.cfi_offset 5, -24
 2077              		.cfi_offset 6, -20
 2078              		.cfi_offset 7, -16
 2079              		.cfi_offset 8, -12
 2080              		.cfi_offset 9, -8
 2081              		.cfi_offset 14, -4
  43:Application.cpp **** 	start = System::GetTick();
 2082              		.loc 15 43 1 view .LVU525
 2083 0004 0646     		mov	r6, r0
 2084 0006 0F46     		mov	r7, r1
 2085 0008 9046     		mov	r8, r2
  44:Application.cpp **** 
 2086              		.loc 15 44 25 view .LVU526
 2087 000a FFF7FEFF 		bl	_ZN5daisy6System7GetTickEv
 2088              	.LVL126:
  44:Application.cpp **** 
 2089              		.loc 15 44 8 view .LVU527
 2090 000e 1D4B     		ldr	r3, .L124
 2091 0010 1860     		str	r0, [r3]
  46:Application.cpp **** 	{
 2092              		.loc 15 46 2 is_stmt 1 view .LVU528
 2093              	.LVL127:
 2094              	.LBB819:
  46:Application.cpp **** 	{
ARM GAS  /var/folders/5f/72p4brfx5932kssh4q_5ly0m0000gn/T//cc7WxlGd.s 			page 82


 2095              		.loc 15 46 23 view .LVU529
 2096 0012 B8F1000F 		cmp	r8, #0
 2097 0016 31D0     		beq	.L114
  46:Application.cpp **** 	{
 2098              		.loc 15 46 14 is_stmt 0 view .LVU530
 2099 0018 0024     		movs	r4, #0
 2100 001a 1B4D     		ldr	r5, .L124+4
 2101              	.LVL128:
 2102              	.L118:
 2103              	.LBB820:
  48:Application.cpp **** 		fftMonitor.insertSample(sample);
 2104              		.loc 15 48 3 is_stmt 1 discriminator 2 view .LVU531
  48:Application.cpp **** 		fftMonitor.insertSample(sample);
 2105              		.loc 15 48 39 is_stmt 0 discriminator 2 view .LVU532
 2106 001c 3368     		ldr	r3, [r6]
 2107 001e 4FEA8409 		lsl	r9, r4, #2
 2108 0022 1A48     		ldr	r0, .L124+8
 2109 0024 03EB8403 		add	r3, r3, r4, lsl #2
 2110 0028 0134     		adds	r4, r4, #1
 2111              	.LVL129:
  48:Application.cpp **** 		fftMonitor.insertSample(sample);
 2112              		.loc 15 48 39 discriminator 2 view .LVU533
 2113 002a 93ED000A 		vldr.32	s0, [r3]
 2114 002e FFF7FEFF 		bl	_ZN9Equalizer7ProcessEf
 2115              	.LVL130:
  50:Application.cpp **** 		out[1][i] = equalizerRight.Process(in[1][i]);
 2116              		.loc 15 50 3 is_stmt 1 discriminator 2 view .LVU534
 2117              	.LBB821:
 2118              	.LBB822:
  40:FFTMonitor.h  **** 			return; // skip samples until buffer is processed
 2119              		.loc 16 40 3 is_stmt 0 discriminator 2 view .LVU535
 2120 0032 2A79     		ldrb	r2, [r5, #4]	@ zero_extendqisi2
 2121              	.LVL131:
  40:FFTMonitor.h  **** 			return; // skip samples until buffer is processed
 2122              		.loc 16 40 3 discriminator 2 view .LVU536
 2123              	.LBE822:
 2124              	.LBE821:
  49:Application.cpp **** 		out[0][i] = sample;
 2125              		.loc 15 49 3 is_stmt 1 discriminator 2 view .LVU537
 2126              	.LBB829:
 2127              	.LBI821:
  38:FFTMonitor.h  **** 	{
 2128              		.loc 16 38 7 discriminator 2 view .LVU538
 2129              	.LBB827:
  40:FFTMonitor.h  **** 			return; // skip samples until buffer is processed
 2130              		.loc 16 40 3 discriminator 2 view .LVU539
 2131              	.LBB823:
 2132              	.LBI823:
  38:FFTMonitor.h  **** 	{
 2133              		.loc 16 38 7 discriminator 2 view .LVU540
 2134              	.LBB824:
  43:FFTMonitor.h  **** 		if (fftIdx >= FFT_SIZE)
 2135              		.loc 16 43 3 discriminator 2 view .LVU541
  43:FFTMonitor.h  **** 		if (fftIdx >= FFT_SIZE)
 2136              		.loc 16 43 26 is_stmt 0 discriminator 2 view .LVU542
 2137 0034 164B     		ldr	r3, .L124+12
 2138              	.LBE824:
ARM GAS  /var/folders/5f/72p4brfx5932kssh4q_5ly0m0000gn/T//cc7WxlGd.s 			page 83


 2139              	.LBE823:
 2140              	.LBE827:
 2141              	.LBE829:
  51:Application.cpp **** 
 2142              		.loc 15 51 37 discriminator 2 view .LVU543
 2143 0036 1748     		ldr	r0, .L124+16
 2144              	.LBB830:
 2145              	.LBB828:
  40:FFTMonitor.h  **** 			return; // skip samples until buffer is processed
 2146              		.loc 16 40 3 discriminator 2 view .LVU544
 2147 0038 82B9     		cbnz	r2, .L116
 2148              	.LBB826:
 2149              	.LBB825:
  46:FFTMonitor.h  **** 			newBuffer = true;
 2150              		.loc 16 46 4 is_stmt 1 view .LVU545
  43:FFTMonitor.h  **** 		if (fftIdx >= FFT_SIZE)
 2151              		.loc 16 43 16 is_stmt 0 view .LVU546
 2152 003a D5F800C0 		ldr	ip, [r5]
  47:FFTMonitor.h  **** 		}
 2153              		.loc 16 47 14 view .LVU547
 2154 003e 4FF0010E 		mov	lr, #1
  43:FFTMonitor.h  **** 		if (fftIdx >= FFT_SIZE)
 2155              		.loc 16 43 22 view .LVU548
 2156 0042 0CEB0E01 		add	r1, ip, lr
  43:FFTMonitor.h  **** 		if (fftIdx >= FFT_SIZE)
 2157              		.loc 16 43 26 view .LVU549
 2158 0046 03EB8C03 		add	r3, r3, ip, lsl #2
  44:FFTMonitor.h  **** 		{
 2159              		.loc 16 44 3 view .LVU550
 2160 004a B1F5805F 		cmp	r1, #4096
  43:FFTMonitor.h  **** 		if (fftIdx >= FFT_SIZE)
 2161              		.loc 16 43 22 view .LVU551
 2162 004e 2960     		str	r1, [r5]
  43:FFTMonitor.h  **** 		if (fftIdx >= FFT_SIZE)
 2163              		.loc 16 43 26 view .LVU552
 2164 0050 83ED000A 		vstr.32	s0, [r3]
  44:FFTMonitor.h  **** 		{
 2165              		.loc 16 44 3 is_stmt 1 view .LVU553
 2166 0054 02DB     		blt	.L116
  46:FFTMonitor.h  **** 			newBuffer = true;
 2167              		.loc 16 46 11 is_stmt 0 view .LVU554
 2168 0056 2A60     		str	r2, [r5]
  47:FFTMonitor.h  **** 		}
 2169              		.loc 16 47 4 is_stmt 1 view .LVU555
  47:FFTMonitor.h  **** 		}
 2170              		.loc 16 47 14 is_stmt 0 view .LVU556
 2171 0058 85F804E0 		strb	lr, [r5, #4]
 2172              	.L116:
  47:FFTMonitor.h  **** 		}
 2173              		.loc 16 47 14 view .LVU557
 2174              	.LBE825:
 2175              	.LBE826:
 2176              	.LBE828:
 2177              	.LBE830:
  50:Application.cpp **** 		out[1][i] = equalizerRight.Process(in[1][i]);
 2178              		.loc 15 50 13 view .LVU558
 2179 005c 3968     		ldr	r1, [r7]
ARM GAS  /var/folders/5f/72p4brfx5932kssh4q_5ly0m0000gn/T//cc7WxlGd.s 			page 84


  51:Application.cpp **** 
 2180              		.loc 15 51 37 view .LVU559
 2181 005e 7268     		ldr	r2, [r6, #4]
  50:Application.cpp **** 		out[1][i] = equalizerRight.Process(in[1][i]);
 2182              		.loc 15 50 13 view .LVU560
 2183 0060 4944     		add	r1, r1, r9
  51:Application.cpp **** 
 2184              		.loc 15 51 11 view .LVU561
 2185 0062 7B68     		ldr	r3, [r7, #4]
  51:Application.cpp **** 
 2186              		.loc 15 51 37 view .LVU562
 2187 0064 4A44     		add	r2, r2, r9
  50:Application.cpp **** 		out[1][i] = equalizerRight.Process(in[1][i]);
 2188              		.loc 15 50 13 view .LVU563
 2189 0066 81ED000A 		vstr.32	s0, [r1]
  51:Application.cpp **** 
 2190              		.loc 15 51 3 is_stmt 1 view .LVU564
  51:Application.cpp **** 
 2191              		.loc 15 51 11 is_stmt 0 view .LVU565
 2192 006a 9944     		add	r9, r9, r3
  51:Application.cpp **** 
 2193              		.loc 15 51 37 view .LVU566
 2194 006c 92ED000A 		vldr.32	s0, [r2]
 2195              	.LVL132:
  51:Application.cpp **** 
 2196              		.loc 15 51 37 view .LVU567
 2197 0070 FFF7FEFF 		bl	_ZN9Equalizer7ProcessEf
 2198              	.LVL133:
  51:Application.cpp **** 
 2199              		.loc 15 51 37 view .LVU568
 2200              	.LBE820:
  46:Application.cpp **** 	{
 2201              		.loc 15 46 23 view .LVU569
 2202 0074 A045     		cmp	r8, r4
 2203              	.LBB831:
  51:Application.cpp **** 
 2204              		.loc 15 51 13 view .LVU570
 2205 0076 89ED000A 		vstr.32	s0, [r9]
 2206              	.LBE831:
  46:Application.cpp **** 	{
 2207              		.loc 15 46 2 is_stmt 1 view .LVU571
 2208              	.LVL134:
  46:Application.cpp **** 	{
 2209              		.loc 15 46 23 view .LVU572
 2210 007a CFD1     		bne	.L118
 2211              	.LVL135:
 2212              	.L114:
  46:Application.cpp **** 	{
 2213              		.loc 15 46 23 is_stmt 0 view .LVU573
 2214              	.LBE819:
  58:Application.cpp **** 	dur = (end - start) * 5; // ns
 2215              		.loc 15 58 2 is_stmt 1 view .LVU574
  61:Application.cpp **** 
 2216              		.loc 15 61 1 is_stmt 0 view .LVU575
 2217 007c BDE8F843 		pop	{r3, r4, r5, r6, r7, r8, r9, lr}
 2218              		.cfi_restore 14
 2219              		.cfi_restore 9
ARM GAS  /var/folders/5f/72p4brfx5932kssh4q_5ly0m0000gn/T//cc7WxlGd.s 			page 85


 2220              		.cfi_restore 8
 2221              		.cfi_restore 7
 2222              		.cfi_restore 6
 2223              		.cfi_restore 5
 2224              		.cfi_restore 4
 2225              		.cfi_restore 3
 2226              		.cfi_def_cfa_offset 0
 2227              	.LVL136:
  58:Application.cpp **** 	dur = (end - start) * 5; // ns
 2228              		.loc 15 58 23 view .LVU576
 2229 0080 FFF7FEBF 		b	_ZN5daisy6System7GetTickEv
 2230              	.LVL137:
 2231              	.L125:
 2232              		.align	2
 2233              	.L124:
 2234 0084 00000000 		.word	.LANCHOR4
 2235 0088 00000000 		.word	_ZL10fftMonitor
 2236 008c 00000000 		.word	.LANCHOR1
 2237 0090 00800000 		.word	_ZL12sampleBuffer
 2238 0094 00000000 		.word	.LANCHOR2
 2239              		.cfi_endproc
 2240              	.LFE4741:
 2242              		.section	.rodata.main.str1.4,"aMS",%progbits,1
 2243              		.align	2
 2244              	.LC7:
 2245 0000 45717561 		.ascii	"Equalizer band %d\000"
 2245      6C697A65 
 2245      72206261 
 2245      6E642025 
 2245      6400
 2246              		.section	.text.startup.main,"ax",%progbits
 2247              		.align	1
 2248              		.p2align 2,,3
 2249              		.global	main
 2250              		.syntax unified
 2251              		.thumb
 2252              		.thumb_func
 2254              	main:
 2255              	.LFB4742:
 111:Application.cpp **** 	equalizerLeft.Init(SAMPLE_RATE);
 2256              		.loc 15 111 1 is_stmt 1 view -0
 2257              		.cfi_startproc
 2258              		@ args = 0, pretend = 0, frame = 16
 2259              		@ frame_needed = 0, uses_anonymous_args = 0
 112:Application.cpp **** 	equalizerLeft.setBypass(true);
 2260              		.loc 15 112 2 view .LVU578
 111:Application.cpp **** 	equalizerLeft.Init(SAMPLE_RATE);
 2261              		.loc 15 111 1 is_stmt 0 view .LVU579
 2262 0000 2DE9F04F 		push	{r4, r5, r6, r7, r8, r9, r10, fp, lr}
 2263              		.cfi_def_cfa_offset 36
 2264              		.cfi_offset 4, -36
 2265              		.cfi_offset 5, -32
 2266              		.cfi_offset 6, -28
 2267              		.cfi_offset 7, -24
 2268              		.cfi_offset 8, -20
 2269              		.cfi_offset 9, -16
 2270              		.cfi_offset 10, -12
ARM GAS  /var/folders/5f/72p4brfx5932kssh4q_5ly0m0000gn/T//cc7WxlGd.s 			page 86


 2271              		.cfi_offset 11, -8
 2272              		.cfi_offset 14, -4
 112:Application.cpp **** 	equalizerLeft.setBypass(true);
 2273              		.loc 15 112 20 view .LVU580
 2274 0004 B84E     		ldr	r6, .L187+8
 2275              	.LBB892:
 2276              	.LBB893:
 2277              		.file 23 "Equalizer.h"
   1:Equalizer.h   **** ///////////////////////////////////////////////////////////
   2:Equalizer.h   **** //  Equalizer.h
   3:Equalizer.h   **** //  Implementation of the Class Equalizer
   4:Equalizer.h   **** //  Created on:      06-aug-2014 09:31:01
   5:Equalizer.h   **** //  Modified:        28-feb-2018 09:32:00
   6:Equalizer.h   **** //  Modified:        27-nov-2025 20:01:00
   7:Equalizer.h   **** //  Original author: kbe
   8:Equalizer.h   **** ///////////////////////////////////////////////////////////
   9:Equalizer.h   **** 
  10:Equalizer.h   **** #if !defined(EQUALIZER_INCLUDED_)
  11:Equalizer.h   **** #define EQUALIZER_INCLUDED_
  12:Equalizer.h   **** 
  13:Equalizer.h   **** #include "Algorithm.h"
  14:Equalizer.h   **** #include "IIRFilter.h"
  15:Equalizer.h   **** 
  16:Equalizer.h   **** #define NUM_EQ_BANDS 6 
  17:Equalizer.h   **** 
  18:Equalizer.h   **** #define MAX_FREQ		20000.0
  19:Equalizer.h   **** #define MIN_FREQ        2.0
  20:Equalizer.h   **** #define MAX_Q			20.0
  21:Equalizer.h   **** #define MIN_Q        	1.0
  22:Equalizer.h   **** #define MAX_GAIN 		18.0
  23:Equalizer.h   **** #define MIN_GAIN 		-18.0
  24:Equalizer.h   **** 
  25:Equalizer.h   **** enum PARAMETER {
  26:Equalizer.h   **** 	PM_GAIN = 0,
  27:Equalizer.h   **** 	PM_FREQ = 1,
  28:Equalizer.h   **** 	PM_Q = 2
  29:Equalizer.h   **** };
  30:Equalizer.h   **** 
  31:Equalizer.h   **** 
  32:Equalizer.h   **** class Equalizer : public Algorithm
  33:Equalizer.h   **** {
  34:Equalizer.h   **** 
  35:Equalizer.h   **** public:
  36:Equalizer.h   **** 
  37:Equalizer.h   **** 	Equalizer();
  38:Equalizer.h   **** 	virtual ~Equalizer();
  39:Equalizer.h   **** 
  40:Equalizer.h   **** 	float Process(float input) override;
  41:Equalizer.h   **** 	void Init(int SampleRate) override;
  42:Equalizer.h   **** 
  43:Equalizer.h   **** 	void setParameter(short band, PARAMETER param, float value);
  44:Equalizer.h   **** 	float incParameter(short band, PARAMETER param, float delta);
  45:Equalizer.h   **** 	float decParameter(short band, PARAMETER param, float delta);
  46:Equalizer.h   **** 	float getParameter(short band, PARAMETER param);
  47:Equalizer.h   **** 	void setBypass(bool val) { filterOn_ = !val; };
 2278              		.loc 23 47 39 view .LVU581
 2279 0006 0024     		movs	r4, #0
ARM GAS  /var/folders/5f/72p4brfx5932kssh4q_5ly0m0000gn/T//cc7WxlGd.s 			page 87


 2280              	.LBE893:
 2281              	.LBE892:
 114:Application.cpp **** 	equalizerRight.setBypass(true);
 2282              		.loc 15 114 21 view .LVU582
 2283 0008 B84D     		ldr	r5, .L187+12
 112:Application.cpp **** 	equalizerLeft.setBypass(true);
 2284              		.loc 15 112 20 view .LVU583
 2285 000a 4BF68031 		movw	r1, #48000
 2286 000e 3046     		mov	r0, r6
 2287              	.LBB896:
 2288              	.LBB897:
  34:FFT.h         **** 
 2289              		.loc 18 34 20 view .LVU584
 2290 0010 DFF82083 		ldr	r8, .L187+84
 2291              	.LBE897:
 2292              	.LBE896:
 111:Application.cpp **** 	equalizerLeft.Init(SAMPLE_RATE);
 2293              		.loc 15 111 1 view .LVU585
 2294 0014 2DED028B 		vpush.64	{d8}
 2295              		.cfi_def_cfa_offset 44
 2296              		.cfi_offset 80, -44
 2297              		.cfi_offset 81, -40
 2298 0018 85B0     		sub	sp, sp, #20
 2299              		.cfi_def_cfa_offset 64
 112:Application.cpp **** 	equalizerLeft.setBypass(true);
 2300              		.loc 15 112 20 view .LVU586
 2301 001a FFF7FEFF 		bl	_ZN9Equalizer4InitEi
 2302              	.LVL138:
 113:Application.cpp **** 	equalizerRight.Init(SAMPLE_RATE);
 2303              		.loc 15 113 2 is_stmt 1 view .LVU587
 2304              	.LBB918:
 2305              	.LBI892:
 2306              		.loc 23 47 7 view .LVU588
 2307              	.LBB894:
 2308              		.loc 23 47 29 view .LVU589
 2309              	.LBE894:
 2310              	.LBE918:
 114:Application.cpp **** 	equalizerRight.setBypass(true);
 2311              		.loc 15 114 21 is_stmt 0 view .LVU590
 2312 001e 4BF68031 		movw	r1, #48000
 2313 0022 2846     		mov	r0, r5
 2314              	.LBB919:
 2315              	.LBB895:
 2316              		.loc 23 47 39 view .LVU591
 2317 0024 3472     		strb	r4, [r6, #8]
 2318              	.LVL139:
 2319              		.loc 23 47 39 view .LVU592
 2320              	.LBE895:
 2321              	.LBE919:
 114:Application.cpp **** 	equalizerRight.setBypass(true);
 2322              		.loc 15 114 2 is_stmt 1 view .LVU593
 114:Application.cpp **** 	equalizerRight.setBypass(true);
 2323              		.loc 15 114 21 is_stmt 0 view .LVU594
 2324 0026 FFF7FEFF 		bl	_ZN9Equalizer4InitEi
 2325              	.LVL140:
 115:Application.cpp **** 
 2326              		.loc 15 115 2 is_stmt 1 view .LVU595
ARM GAS  /var/folders/5f/72p4brfx5932kssh4q_5ly0m0000gn/T//cc7WxlGd.s 			page 88


 2327              	.LBB920:
 2328              	.LBI920:
 2329              		.loc 23 47 7 view .LVU596
 2330              	.LBB921:
 2331              		.loc 23 47 29 view .LVU597
 2332              	.LBE921:
 2333              	.LBE920:
 124:Application.cpp **** 	my_colors[1].Init(Color::PresetColor::GOLD);
 2334              		.loc 15 124 19 is_stmt 0 view .LVU598
 2335 002a 2146     		mov	r1, r4
 2336 002c B048     		ldr	r0, .L187+16
 2337              	.LBB923:
 2338              	.LBB922:
 2339              		.loc 23 47 39 view .LVU599
 2340 002e 2C72     		strb	r4, [r5, #8]
 2341              	.LVL141:
 2342              		.loc 23 47 39 view .LVU600
 2343              	.LBE922:
 2344              	.LBE923:
 119:Application.cpp **** 	bool eqOn = false;
 2345              		.loc 15 119 2 is_stmt 1 view .LVU601
 120:Application.cpp **** 	int counter = 0;
 2346              		.loc 15 120 2 view .LVU602
 121:Application.cpp **** 	int band = 0;
 2347              		.loc 15 121 2 view .LVU603
 122:Application.cpp **** 
 2348              		.loc 15 122 2 view .LVU604
 124:Application.cpp **** 	my_colors[1].Init(Color::PresetColor::GOLD);
 2349              		.loc 15 124 2 view .LVU605
 124:Application.cpp **** 	my_colors[1].Init(Color::PresetColor::GOLD);
 2350              		.loc 15 124 19 is_stmt 0 view .LVU606
 2351 0030 FFF7FEFF 		bl	_ZN5daisy5Color4InitENS0_11PresetColorE
 2352              	.LVL142:
 125:Application.cpp ****     my_colors[2].Init(Color::PresetColor::GREEN);
 2353              		.loc 15 125 2 is_stmt 1 view .LVU607
 125:Application.cpp ****     my_colors[2].Init(Color::PresetColor::GREEN);
 2354              		.loc 15 125 19 is_stmt 0 view .LVU608
 2355 0034 0621     		movs	r1, #6
 2356 0036 AF48     		ldr	r0, .L187+20
 2357 0038 FFF7FEFF 		bl	_ZN5daisy5Color4InitENS0_11PresetColorE
 2358              	.LVL143:
 126:Application.cpp ****     my_colors[3].Init(Color::PresetColor::BLUE);
 2359              		.loc 15 126 5 is_stmt 1 view .LVU609
 126:Application.cpp ****     my_colors[3].Init(Color::PresetColor::BLUE);
 2360              		.loc 15 126 22 is_stmt 0 view .LVU610
 2361 003c 0121     		movs	r1, #1
 2362 003e AE48     		ldr	r0, .L187+24
 2363 0040 FFF7FEFF 		bl	_ZN5daisy5Color4InitENS0_11PresetColorE
 2364              	.LVL144:
 127:Application.cpp ****     my_colors[4].Init(Color::PresetColor::PURPLE);
 2365              		.loc 15 127 5 is_stmt 1 view .LVU611
 127:Application.cpp ****     my_colors[4].Init(Color::PresetColor::PURPLE);
 2366              		.loc 15 127 22 is_stmt 0 view .LVU612
 2367 0044 0221     		movs	r1, #2
 2368 0046 AD48     		ldr	r0, .L187+28
 2369 0048 FFF7FEFF 		bl	_ZN5daisy5Color4InitENS0_11PresetColorE
 2370              	.LVL145:
ARM GAS  /var/folders/5f/72p4brfx5932kssh4q_5ly0m0000gn/T//cc7WxlGd.s 			page 89


 128:Application.cpp **** 	my_colors[5].Init(Color::PresetColor::WHITE);
 2371              		.loc 15 128 5 is_stmt 1 view .LVU613
 128:Application.cpp **** 	my_colors[5].Init(Color::PresetColor::WHITE);
 2372              		.loc 15 128 22 is_stmt 0 view .LVU614
 2373 004c 0421     		movs	r1, #4
 2374 004e AC48     		ldr	r0, .L187+32
 2375 0050 FFF7FEFF 		bl	_ZN5daisy5Color4InitENS0_11PresetColorE
 2376              	.LVL146:
 129:Application.cpp ****     my_colors[6].Init(Color::PresetColor::OFF);
 2377              		.loc 15 129 2 is_stmt 1 view .LVU615
 129:Application.cpp ****     my_colors[6].Init(Color::PresetColor::OFF);
 2378              		.loc 15 129 19 is_stmt 0 view .LVU616
 2379 0054 0321     		movs	r1, #3
 2380 0056 AB48     		ldr	r0, .L187+36
 2381 0058 FFF7FEFF 		bl	_ZN5daisy5Color4InitENS0_11PresetColorE
 2382              	.LVL147:
 130:Application.cpp **** 
 2383              		.loc 15 130 5 is_stmt 1 view .LVU617
 130:Application.cpp **** 
 2384              		.loc 15 130 22 is_stmt 0 view .LVU618
 2385 005c 0721     		movs	r1, #7
 2386 005e AA48     		ldr	r0, .L187+40
 2387 0060 FFF7FEFF 		bl	_ZN5daisy5Color4InitENS0_11PresetColorE
 2388              	.LVL148:
 132:Application.cpp **** 	//fftMonitor.setWindowType(WindowFunction::WELCH);
 2389              		.loc 15 132 2 is_stmt 1 view .LVU619
 2390              	.LBB924:
 2391              	.LBI896:
  31:FFT.h         ****     {
 2392              		.loc 18 31 10 view .LVU620
 2393              	.LBB915:
  33:FFT.h         ****         freeBuffers();
 2394              		.loc 18 33 9 view .LVU621
  33:FFT.h         ****         freeBuffers();
 2395              		.loc 18 33 9 is_stmt 0 view .LVU622
 2396              	.LBE915:
 2397              	.LBE924:
 156:FFT.h         **** 
 157:FFT.h         ****     // helpers
 158:FFT.h         ****     uint32_t size() const { return N; }
 159:FFT.h         ****     bool isInit() const { return N != 0; }
 160:FFT.h         **** 
 161:FFT.h         **** private:
 162:FFT.h         ****     uint32_t N;
 163:FFT.h         ****     int log2N;
 164:FFT.h         ****     float* twiddles;   // length = N/2 * 2 (cos,sin)
 165:FFT.h         ****     uint32_t* bitrev;  // length = N
 166:FFT.h         **** 
 167:FFT.h         ****     // compute twiddles for k=0..N/2-1 as cos(-2pi*k/N), sin(-2pi*k/N)
 168:FFT.h         ****     void computeTwiddles() 
 169:FFT.h         ****     {
 170:FFT.h         ****         const float TWO_PI = 6.283185307179586476925286766559f;
 171:FFT.h         ****         for (uint32_t k = 0; k < N/2; ++k) {
 172:FFT.h         ****             float angle = -TWO_PI * float(k) / float(N); // negative for forward FFT convention
 173:FFT.h         ****             twiddles[2*k + 0] = cosf(angle);
 174:FFT.h         ****             twiddles[2*k + 1] = sinf(angle);
 175:FFT.h         ****         }
ARM GAS  /var/folders/5f/72p4brfx5932kssh4q_5ly0m0000gn/T//cc7WxlGd.s 			page 90


 176:FFT.h         ****     }
 177:FFT.h         **** 
 178:FFT.h         ****     // compute bit reversal for indices 0..N-1
 179:FFT.h         ****     void computeBitReversal() 
 180:FFT.h         ****     {
 181:FFT.h         ****         for (uint32_t i = 0; i < (uint32_t)N; ++i) {
 182:FFT.h         ****             bitrev[i] = bitReverse(i, log2N);
 183:FFT.h         ****         }
 184:FFT.h         ****     }
 185:FFT.h         **** 
 186:FFT.h         ****     static inline bool isPowerOfTwo(uint32_t x) 
 187:FFT.h         ****     { 
 188:FFT.h         ****         return x && !(x & (x - 1)); 
 2398              		.loc 18 188 9 is_stmt 1 view .LVU623
 2399              	.LBB925:
 2400              	.LBB916:
  34:FFT.h         **** 
 2401              		.loc 18 34 9 view .LVU624
  34:FFT.h         **** 
 2402              		.loc 18 34 20 is_stmt 0 view .LVU625
 2403 0064 4046     		mov	r0, r8
 2404 0066 FFF7FEFF 		bl	_ZN3FFT11freeBuffersEv
 2405              	.LVL149:
  36:FFT.h         ****         log2N = computeLog2(N);
 2406              		.loc 18 36 9 is_stmt 1 view .LVU626
  36:FFT.h         ****         log2N = computeLog2(N);
 2407              		.loc 18 36 11 is_stmt 0 view .LVU627
 2408 006a 4FF48052 		mov	r2, #4096
  37:FFT.h         **** 
 2409              		.loc 18 37 15 view .LVU628
 2410 006e 0C23     		movs	r3, #12
  41:FFT.h         ****         // bit reversal table
 2411              		.loc 18 41 39 view .LVU629
 2412 0070 4FF48040 		mov	r0, #16384
  37:FFT.h         **** 
 2413              		.loc 18 37 15 view .LVU630
 2414 0074 C8E90023 		strd	r2, r3, [r8]
  41:FFT.h         ****         // bit reversal table
 2415              		.loc 18 41 9 is_stmt 1 view .LVU631
  41:FFT.h         ****         // bit reversal table
 2416              		.loc 18 41 39 is_stmt 0 view .LVU632
 2417 0078 FFF7FEFF 		bl	_Znaj
 2418              	.LVL150:
  43:FFT.h         **** 
 2419              		.loc 18 43 31 view .LVU633
 2420 007c D8F80030 		ldr	r3, [r8]
  43:FFT.h         **** 
 2421              		.loc 18 43 32 view .LVU634
 2422 0080 6FF06042 		mvn	r2, #-536870912
  41:FFT.h         ****         // bit reversal table
 2423              		.loc 18 41 18 view .LVU635
 2424 0084 C8F80800 		str	r0, [r8, #8]
  43:FFT.h         **** 
 2425              		.loc 18 43 9 is_stmt 1 view .LVU636
  43:FFT.h         **** 
 2426              		.loc 18 43 32 is_stmt 0 view .LVU637
 2427 0088 9342     		cmp	r3, r2
ARM GAS  /var/folders/5f/72p4brfx5932kssh4q_5ly0m0000gn/T//cc7WxlGd.s 			page 91


 2428 008a 34BF     		ite	cc
 2429 008c 9800     		lslcc	r0, r3, #2
 2430 008e 4FF0FF30 		movcs	r0, #-1
 2431 0092 FFF7FEFF 		bl	_Znaj
 2432              	.LVL151:
  45:FFT.h         ****             freeBuffers();
 2433              		.loc 18 45 14 view .LVU638
 2434 0096 D8F80840 		ldr	r4, [r8, #8]
  43:FFT.h         **** 
 2435              		.loc 18 43 32 view .LVU639
 2436 009a 0746     		mov	r7, r0
  43:FFT.h         **** 
 2437              		.loc 18 43 16 view .LVU640
 2438 009c C8F80C00 		str	r0, [r8, #12]
  45:FFT.h         ****             freeBuffers();
 2439              		.loc 18 45 9 is_stmt 1 view .LVU641
 2440 00a0 002C     		cmp	r4, #0
 2441 00a2 00F01481 		beq	.L181
 2442              	.LVL152:
 2443              	.LBB898:
 2444              	.LBB899:
 2445              	.LBB900:
 2446              	.LBB901:
 171:FFT.h         ****             float angle = -TWO_PI * float(k) / float(N); // negative for forward FFT convention
 2447              		.loc 18 171 32 view .LVU642
 171:FFT.h         ****             float angle = -TWO_PI * float(k) / float(N); // negative for forward FFT convention
 2448              		.loc 18 171 34 is_stmt 0 view .LVU643
 2449 00a6 D8F80050 		ldr	r5, [r8]
 171:FFT.h         ****             float angle = -TWO_PI * float(k) / float(N); // negative for forward FFT convention
 2450              		.loc 18 171 32 view .LVU644
 2451 00aa 5FEA5509 		lsrs	r9, r5, #1
 2452 00ae 00F01281 		beq	.L182
 2453              	.LBB902:
 172:FFT.h         ****             twiddles[2*k + 0] = cosf(angle);
 2454              		.loc 18 172 48 view .LVU645
 2455 00b2 07EE905A 		vmov	s15, r5	@ int
 2456              	.LBE902:
 171:FFT.h         ****             float angle = -TWO_PI * float(k) / float(N); // negative for forward FFT convention
 2457              		.loc 18 171 23 view .LVU646
 2458 00b6 0026     		movs	r6, #0
 2459              	.LBB903:
 172:FFT.h         ****             twiddles[2*k + 0] = cosf(angle);
 2460              		.loc 18 172 48 view .LVU647
 2461 00b8 F8EE678A 		vcvt.f32.u32	s17, s15
 2462              	.LVL153:
 2463              	.L134:
 172:FFT.h         ****             twiddles[2*k + 0] = cosf(angle);
 2464              		.loc 18 172 13 is_stmt 1 view .LVU648
 172:FFT.h         ****             twiddles[2*k + 0] = cosf(angle);
 2465              		.loc 18 172 37 is_stmt 0 view .LVU649
 2466 00bc 07EE906A 		vmov	s15, r6	@ int
 172:FFT.h         ****             twiddles[2*k + 0] = cosf(angle);
 2467              		.loc 18 172 35 view .LVU650
 2468 00c0 9FED927A 		vldr.32	s14, .L187+44
 2469              	.LBE903:
 171:FFT.h         ****             float angle = -TWO_PI * float(k) / float(N); // negative for forward FFT convention
 2470              		.loc 18 171 32 view .LVU651
ARM GAS  /var/folders/5f/72p4brfx5932kssh4q_5ly0m0000gn/T//cc7WxlGd.s 			page 92


 2471 00c4 0834     		adds	r4, r4, #8
 171:FFT.h         ****             float angle = -TWO_PI * float(k) / float(N); // negative for forward FFT convention
 2472              		.loc 18 171 9 view .LVU652
 2473 00c6 0136     		adds	r6, r6, #1
 2474              	.LVL154:
 2475              	.LBB904:
 172:FFT.h         ****             twiddles[2*k + 0] = cosf(angle);
 2476              		.loc 18 172 37 view .LVU653
 2477 00c8 F8EEE77A 		vcvt.f32.s32	s15, s15
 2478              	.LVL155:
 172:FFT.h         ****             twiddles[2*k + 0] = cosf(angle);
 2479              		.loc 18 172 35 view .LVU654
 2480 00cc 67EE877A 		vmul.f32	s15, s15, s14
 172:FFT.h         ****             twiddles[2*k + 0] = cosf(angle);
 2481              		.loc 18 172 19 view .LVU655
 2482 00d0 87EEA88A 		vdiv.f32	s16, s15, s17
 2483              	.LVL156:
 173:FFT.h         ****             twiddles[2*k + 1] = sinf(angle);
 2484              		.loc 18 173 13 is_stmt 1 view .LVU656
 173:FFT.h         ****             twiddles[2*k + 1] = sinf(angle);
 2485              		.loc 18 173 37 is_stmt 0 view .LVU657
 2486 00d4 B0EE480A 		vmov.f32	s0, s16
 2487 00d8 FFF7FEFF 		bl	cosf
 2488              	.LVL157:
 2489 00dc F0EE407A 		vmov.f32	s15, s0
 174:FFT.h         ****         }
 2490              		.loc 18 174 37 view .LVU658
 2491 00e0 B0EE480A 		vmov.f32	s0, s16
 173:FFT.h         ****             twiddles[2*k + 1] = sinf(angle);
 2492              		.loc 18 173 31 view .LVU659
 2493 00e4 44ED027A 		vstr.32	s15, [r4, #-8]
 174:FFT.h         ****         }
 2494              		.loc 18 174 13 is_stmt 1 view .LVU660
 174:FFT.h         ****         }
 2495              		.loc 18 174 37 is_stmt 0 view .LVU661
 2496 00e8 FFF7FEFF 		bl	sinf
 2497              	.LVL158:
 2498              	.LBE904:
 171:FFT.h         ****             float angle = -TWO_PI * float(k) / float(N); // negative for forward FFT convention
 2499              		.loc 18 171 32 view .LVU662
 2500 00ec B145     		cmp	r9, r6
 2501              	.LBB905:
 174:FFT.h         ****         }
 2502              		.loc 18 174 31 view .LVU663
 2503 00ee 04ED010A 		vstr.32	s0, [r4, #-4]
 2504              	.LBE905:
 171:FFT.h         ****             float angle = -TWO_PI * float(k) / float(N); // negative for forward FFT convention
 2505              		.loc 18 171 9 is_stmt 1 view .LVU664
 2506              	.LVL159:
 171:FFT.h         ****             float angle = -TWO_PI * float(k) / float(N); // negative for forward FFT convention
 2507              		.loc 18 171 32 view .LVU665
 2508 00f2 E3D1     		bne	.L134
 2509              	.LVL160:
 2510              	.L133:
 171:FFT.h         ****             float angle = -TWO_PI * float(k) / float(N); // negative for forward FFT convention
 2511              		.loc 18 171 32 is_stmt 0 view .LVU666
 2512              	.LBE901:
ARM GAS  /var/folders/5f/72p4brfx5932kssh4q_5ly0m0000gn/T//cc7WxlGd.s 			page 93


 2513              	.LBE900:
 2514              	.LBE899:
 2515              	.LBB906:
 2516              	.LBB907:
 182:FFT.h         ****         }
 2517              		.loc 18 182 35 view .LVU667
 2518 00f4 D8F80440 		ldr	r4, [r8, #4]
 2519 00f8 043F     		subs	r7, r7, #4
 2520 00fa 0026     		movs	r6, #0
 2521              	.L132:
 2522              	.LVL161:
 182:FFT.h         ****         }
 2523              		.loc 18 182 13 is_stmt 1 view .LVU668
 2524              	.LBB908:
 2525              	.LBI908:
 189:FFT.h         ****     }
 190:FFT.h         ****     static inline int computeLog2(uint32_t x) 
 191:FFT.h         ****     {
 192:FFT.h         ****         int l = 0;
 193:FFT.h         ****         while (x > 1) { x >>= 1; l++; }
 194:FFT.h         ****         return l;
 195:FFT.h         ****     }
 196:FFT.h         ****     static inline uint32_t bitReverse(uint32_t x, int bits) 
 2526              		.loc 18 196 28 view .LVU669
 2527              	.LBB909:
 197:FFT.h         ****     {
 198:FFT.h         ****         uint32_t y = 0;
 2528              		.loc 18 198 9 view .LVU670
 199:FFT.h         ****         for (int i = 0; i < bits; ++i) {
 2529              		.loc 18 199 9 view .LVU671
 2530              	.LBB910:
 2531              		.loc 18 199 27 view .LVU672
 2532 00fc 002C     		cmp	r4, #0
 2533              	.LBE910:
 198:FFT.h         ****         for (int i = 0; i < bits; ++i) {
 2534              		.loc 18 198 18 is_stmt 0 view .LVU673
 2535 00fe 4FF00000 		mov	r0, #0
 2536              	.LBB911:
 2537              		.loc 18 199 27 view .LVU674
 2538 0102 09DD     		ble	.L135
 2539 0104 3146     		mov	r1, r6
 2540              		.loc 18 199 18 view .LVU675
 2541 0106 0246     		mov	r2, r0
 2542              	.LVL162:
 2543              	.L136:
 200:FFT.h         ****             y = (y << 1) | (x & 1u);
 2544              		.loc 18 200 13 is_stmt 1 view .LVU676
 199:FFT.h         ****         for (int i = 0; i < bits; ++i) {
 2545              		.loc 18 199 9 is_stmt 0 view .LVU677
 2546 0108 0132     		adds	r2, r2, #1
 2547              	.LVL163:
 2548              		.loc 18 200 31 view .LVU678
 2549 010a 01F00103 		and	r3, r1, #1
 2550              		.loc 18 200 15 view .LVU679
 2551 010e 4908     		lsrs	r1, r1, #1
 2552              	.LVL164:
 199:FFT.h         ****         for (int i = 0; i < bits; ++i) {
ARM GAS  /var/folders/5f/72p4brfx5932kssh4q_5ly0m0000gn/T//cc7WxlGd.s 			page 94


 2553              		.loc 18 199 27 view .LVU680
 2554 0110 9442     		cmp	r4, r2
 2555              		.loc 18 200 15 view .LVU681
 2556 0112 43EA4000 		orr	r0, r3, r0, lsl #1
 2557              	.LVL165:
 201:FFT.h         ****             x >>= 1;
 2558              		.loc 18 201 13 is_stmt 1 view .LVU682
 199:FFT.h         ****             y = (y << 1) | (x & 1u);
 2559              		.loc 18 199 9 view .LVU683
 199:FFT.h         ****             y = (y << 1) | (x & 1u);
 2560              		.loc 18 199 27 view .LVU684
 2561 0116 F7D1     		bne	.L136
 2562              	.LVL166:
 2563              	.L135:
 199:FFT.h         ****             y = (y << 1) | (x & 1u);
 2564              		.loc 18 199 27 is_stmt 0 view .LVU685
 2565              	.LBE911:
 202:FFT.h         ****         }
 203:FFT.h         ****         return y;
 2566              		.loc 18 203 9 is_stmt 1 view .LVU686
 2567              		.loc 18 203 9 is_stmt 0 view .LVU687
 2568              	.LBE909:
 2569              	.LBE908:
 181:FFT.h         ****             bitrev[i] = bitReverse(i, log2N);
 2570              		.loc 18 181 9 view .LVU688
 2571 0118 0136     		adds	r6, r6, #1
 2572              	.LVL167:
 182:FFT.h         ****         }
 2573              		.loc 18 182 23 view .LVU689
 2574 011a 47F8040F 		str	r0, [r7, #4]!
 181:FFT.h         ****             bitrev[i] = bitReverse(i, log2N);
 2575              		.loc 18 181 9 is_stmt 1 view .LVU690
 2576              	.LVL168:
 181:FFT.h         ****             bitrev[i] = bitReverse(i, log2N);
 2577              		.loc 18 181 32 view .LVU691
 2578 011e B542     		cmp	r5, r6
 2579 0120 ECD8     		bhi	.L132
 2580              	.LVL169:
 2581              	.L129:
 181:FFT.h         ****             bitrev[i] = bitReverse(i, log2N);
 2582              		.loc 18 181 32 is_stmt 0 view .LVU692
 2583              	.LBE907:
 2584              	.LBE906:
 2585              	.LBE898:
 2586              	.LBE916:
 2587              	.LBE925:
 135:Application.cpp **** 	
 2588              		.loc 15 135 2 is_stmt 1 view .LVU693
 2589              	.LBB926:
 2590              	.LBI926:
  51:FFTMonitor.h  **** 	{
 2591              		.loc 16 51 7 view .LVU694
 2592              	.LBE926:
  53:FFTMonitor.h  **** 	}
 2593              		.loc 16 53 3 view .LVU695
 2594              	.LBB938:
 2595              	.LBB927:
ARM GAS  /var/folders/5f/72p4brfx5932kssh4q_5ly0m0000gn/T//cc7WxlGd.s 			page 95


 2596              	.LBI927:
  37:Window.h      ****     {
 2597              		.loc 17 37 17 view .LVU696
 2598              	.LBB928:
  39:Window.h      ****         computeCoefficients();
 2599              		.loc 17 39 9 view .LVU697
  39:Window.h      ****         computeCoefficients();
 2600              		.loc 17 39 17 is_stmt 0 view .LVU698
 2601 0122 7B4B     		ldr	r3, .L187+48
 2602 0124 0222     		movs	r2, #2
 2603              	.LBB929:
 2604              	.LBB930:
 2605              	.LBB931:
  77:Window.h      ****             coeffs[i] = 0.5f - 0.5f * cosf(2.0f * M_PI * i / (float)(N - 1));
 2606              		.loc 17 77 34 view .LVU699
 2607 0126 9D8B     		ldrh	r5, [r3, #28]
 2608              	.LBE931:
 2609              	.LBE930:
 2610              	.LBE929:
  39:Window.h      ****         computeCoefficients();
 2611              		.loc 17 39 17 view .LVU700
 2612 0128 9A77     		strb	r2, [r3, #30]
  40:Window.h      ****     }
 2613              		.loc 17 40 9 is_stmt 1 view .LVU701
 2614              	.LVL170:
 2615              	.LBB934:
 2616              	.LBI929:
  50:Window.h      ****     {
 2617              		.loc 17 50 10 view .LVU702
 2618              	.LBE934:
 2619              	.LBE928:
 2620              	.LBE927:
 2621              	.LBE938:
  52:Window.h      ****         {
 2622              		.loc 17 52 9 view .LVU703
 2623              	.LBB939:
 2624              	.LBB937:
 2625              	.LBB936:
 2626              	.LBB935:
 2627              	.LBB933:
 2628              	.LBB932:
  77:Window.h      ****             coeffs[i] = 0.5f - 0.5f * cosf(2.0f * M_PI * i / (float)(N - 1));
 2629              		.loc 17 77 32 view .LVU704
 2630 012a F5B1     		cbz	r5, .L139
  78:Window.h      ****     }
 2631              		.loc 17 78 72 is_stmt 0 view .LVU705
 2632 012c 6A1E     		subs	r2, r5, #1
 2633 012e 1E6A     		ldr	r6, [r3, #32]
  78:Window.h      ****     }
 2634              		.loc 17 78 62 view .LVU706
 2635 0130 0024     		movs	r4, #0
 2636 0132 07EE902A 		vmov	s15, r2	@ int
 2637 0136 B8EEE78B 		vcvt.f64.s32	d8, s15
 2638              	.LVL171:
 2639              	.L140:
  78:Window.h      ****     }
 2640              		.loc 17 78 13 is_stmt 1 view .LVU707
ARM GAS  /var/folders/5f/72p4brfx5932kssh4q_5ly0m0000gn/T//cc7WxlGd.s 			page 96


  78:Window.h      ****     }
 2641              		.loc 17 78 56 is_stmt 0 view .LVU708
 2642 013a 07EE904A 		vmov	s15, r4	@ int
  77:Window.h      ****             coeffs[i] = 0.5f - 0.5f * cosf(2.0f * M_PI * i / (float)(N - 1));
 2643              		.loc 17 77 32 view .LVU709
 2644 013e 0134     		adds	r4, r4, #1
 2645              	.LVL172:
  78:Window.h      ****     }
 2646              		.loc 17 78 56 view .LVU710
 2647 0140 9FED676B 		vldr.64	d6, .L187
 2648 0144 B8EEE77B 		vcvt.f64.s32	d7, s15
 2649 0148 27EE067B 		vmul.f64	d7, d7, d6
  78:Window.h      ****     }
 2650              		.loc 17 78 60 view .LVU711
 2651 014c 87EE080B 		vdiv.f64	d0, d7, d8
  78:Window.h      ****     }
 2652              		.loc 17 78 43 view .LVU712
 2653 0150 B7EEC00B 		vcvt.f32.f64	s0, d0
 2654 0154 FFF7FEFF 		bl	cosf
 2655              	.LVL173:
  78:Window.h      ****     }
 2656              		.loc 17 78 30 view .LVU713
 2657 0158 F6EE007A 		vmov.f32	s15, #5.0e-1
  77:Window.h      ****             coeffs[i] = 0.5f - 0.5f * cosf(2.0f * M_PI * i / (float)(N - 1));
 2658              		.loc 17 77 32 view .LVU714
 2659 015c A3B2     		uxth	r3, r4
  78:Window.h      ****     }
 2660              		.loc 17 78 30 view .LVU715
 2661 015e E0EE677A 		vfms.f32	s15, s0, s15
  77:Window.h      ****             coeffs[i] = 0.5f - 0.5f * cosf(2.0f * M_PI * i / (float)(N - 1));
 2662              		.loc 17 77 32 view .LVU716
 2663 0162 9D42     		cmp	r5, r3
  78:Window.h      ****     }
 2664              		.loc 17 78 23 view .LVU717
 2665 0164 E6EC017A 		vstmia.32	r6!, {s15}
  77:Window.h      ****             coeffs[i] = 0.5f - 0.5f * cosf(2.0f * M_PI * i / (float)(N - 1));
 2666              		.loc 17 77 9 is_stmt 1 view .LVU718
  77:Window.h      ****             coeffs[i] = 0.5f - 0.5f * cosf(2.0f * M_PI * i / (float)(N - 1));
 2667              		.loc 17 77 32 view .LVU719
 2668 0168 E7D8     		bhi	.L140
 2669              	.L139:
 2670              	.LVL174:
  77:Window.h      ****             coeffs[i] = 0.5f - 0.5f * cosf(2.0f * M_PI * i / (float)(N - 1));
 2671              		.loc 17 77 32 is_stmt 0 view .LVU720
 2672              	.LBE932:
 2673              	.LBE933:
 2674              	.LBE935:
 2675              	.LBE936:
 2676              	.LBE937:
 2677              	.LBE939:
 137:Application.cpp **** 	hwPod.seed.StartLog();
 2678              		.loc 15 137 2 is_stmt 1 view .LVU721
 137:Application.cpp **** 	hwPod.seed.StartLog();
 2679              		.loc 15 137 12 is_stmt 0 view .LVU722
 2680 016a 0021     		movs	r1, #0
 2681 016c 6948     		ldr	r0, .L187+52
 2682 016e FFF7FEFF 		bl	_ZN5daisy8DaisyPod4InitEb
ARM GAS  /var/folders/5f/72p4brfx5932kssh4q_5ly0m0000gn/T//cc7WxlGd.s 			page 97


 2683              	.LVL175:
 138:Application.cpp **** 	hwPod.SetAudioBlockSize(SAMPLE_BUFFER_SIZE); // number of samples handled per callback
 2684              		.loc 15 138 2 is_stmt 1 view .LVU723
 2685              	.LBB940:
 2686              	.LBI940:
 129:../../libDaisy//src/daisy_seed.h ****     }
 130:../../libDaisy//src/daisy_seed.h **** 
 131:../../libDaisy//src/daisy_seed.h ****     /** Start the logging session. Optionally wait for terminal connection before proceeding.
 132:../../libDaisy//src/daisy_seed.h ****     */
 133:../../libDaisy//src/daisy_seed.h ****     static void StartLog(bool wait_for_pc = false)
 2687              		.loc 10 133 17 view .LVU724
 2688              	.LBB941:
 134:../../libDaisy//src/daisy_seed.h ****     {
 135:../../libDaisy//src/daisy_seed.h ****         Log::StartLog(wait_for_pc);
 2689              		.loc 10 135 9 view .LVU725
 2690              		.loc 10 135 22 is_stmt 0 view .LVU726
 2691 0172 0020     		movs	r0, #0
 2692 0174 FFF7FEFF 		bl	_ZN5daisy6LoggerILNS_17LoggerDestinationE1EE8StartLogEb
 2693              	.LVL176:
 2694              		.loc 10 135 22 view .LVU727
 2695              	.LBE941:
 2696              	.LBE940:
 139:Application.cpp **** 	
 2697              		.loc 15 139 2 is_stmt 1 view .LVU728
 139:Application.cpp **** 	
 2698              		.loc 15 139 25 is_stmt 0 view .LVU729
 2699 0178 0821     		movs	r1, #8
 2700 017a 6648     		ldr	r0, .L187+52
 122:Application.cpp **** 
 2701              		.loc 15 122 6 view .LVU730
 2702 017c 4FF00008 		mov	r8, #0
 139:Application.cpp **** 	
 2703              		.loc 15 139 25 view .LVU731
 2704 0180 FFF7FEFF 		bl	_ZN5daisy8DaisyPod17SetAudioBlockSizeEj
 2705              	.LVL177:
 141:Application.cpp **** 		hwPod.SetAudioSampleRate(SaiHandle::Config::SampleRate::SAI_48KHZ);
 2706              		.loc 15 141 2 is_stmt 1 view .LVU732
 142:Application.cpp **** 	else if (SAMPLE_RATE == 96000)
 2707              		.loc 15 142 3 view .LVU733
 142:Application.cpp **** 	else if (SAMPLE_RATE == 96000)
 2708              		.loc 15 142 27 is_stmt 0 view .LVU734
 2709 0184 0321     		movs	r1, #3
 2710 0186 6348     		ldr	r0, .L187+52
 121:Application.cpp **** 	int band = 0;
 2711              		.loc 15 121 6 view .LVU735
 2712 0188 4746     		mov	r7, r8
 142:Application.cpp **** 	else if (SAMPLE_RATE == 96000)
 2713              		.loc 15 142 27 view .LVU736
 2714 018a FFF7FEFF 		bl	_ZN5daisy8DaisyPod18SetAudioSampleRateENS_9SaiHandle6Config10SampleRateE
 2715              	.LVL178:
 148:Application.cpp **** 	hwPod.StartAudio(AudioCallback);
 2716              		.loc 15 148 2 is_stmt 1 view .LVU737
 2717 018e DFF86091 		ldr	r9, .L187+16
 148:Application.cpp **** 	hwPod.StartAudio(AudioCallback);
 2718              		.loc 15 148 16 is_stmt 0 view .LVU738
 2719 0192 6048     		ldr	r0, .L187+52
 120:Application.cpp **** 	int counter = 0;
ARM GAS  /var/folders/5f/72p4brfx5932kssh4q_5ly0m0000gn/T//cc7WxlGd.s 			page 98


 2720              		.loc 15 120 7 view .LVU739
 2721 0194 C246     		mov	r10, r8
 148:Application.cpp **** 	hwPod.StartAudio(AudioCallback);
 2722              		.loc 15 148 16 view .LVU740
 2723 0196 FFF7FEFF 		bl	_ZN5daisy8DaisyPod8StartAdcEv
 2724              	.LVL179:
 149:Application.cpp **** 
 2725              		.loc 15 149 2 is_stmt 1 view .LVU741
 149:Application.cpp **** 
 2726              		.loc 15 149 18 is_stmt 0 view .LVU742
 2727 019a 5F49     		ldr	r1, .L187+56
 2728 019c 5D48     		ldr	r0, .L187+52
 2729 019e 01AC     		add	r4, sp, #4
 2730 01a0 5C4E     		ldr	r6, .L187+52
 2731 01a2 09F1180B 		add	fp, r9, #24
 2732 01a6 FFF7FEFF 		bl	_ZN5daisy8DaisyPod10StartAudioEPFvPKPKfPPfjE
 2733              	.LVL180:
 2734 01aa 21E0     		b	.L138
 2735              	.LVL181:
 2736              	.L186:
 2737              	.LBB942:
 189:Application.cpp **** 			hwPod.led1.SetColor(my_colors[0]);
 2738              		.loc 15 189 3 view .LVU743
 2739 01ac BAF1000F 		cmp	r10, #0
 2740 01b0 54D0     		beq	.L148
 190:Application.cpp **** 		}
 2741              		.loc 15 190 4 is_stmt 1 view .LVU744
 190:Application.cpp **** 		}
 2742              		.loc 15 190 35 is_stmt 0 view .LVU745
 2743 01b2 99E80700 		ldm	r9, {r0, r1, r2}
 2744              	.LVL182:
 190:Application.cpp **** 		}
 2745              		.loc 15 190 35 view .LVU746
 2746 01b6 84E80700 		stm	r4, {r0, r1, r2}
 190:Application.cpp **** 		}
 2747              		.loc 15 190 23 view .LVU747
 2748 01ba 2146     		mov	r1, r4
 2749 01bc 5748     		ldr	r0, .L187+60
 2750 01be FFF7FEFF 		bl	_ZN5daisy6RgbLed8SetColorENS_5ColorE
 2751              	.LVL183:
 2752              	.LBB943:
 2753              	.LBI943:
 2754              		.file 24 "../../libDaisy//src/util/color.h"
   1:../../libDaisy//src/util/color.h **** /* 
   2:../../libDaisy//src/util/color.h **** TODO:
   3:../../libDaisy//src/util/color.h **** - Add Blend(), Scale(), etc.
   4:../../libDaisy//src/util/color.h **** - I'd also like to change the way the Color names are accessed.
   5:../../libDaisy//src/util/color.h **** */
   6:../../libDaisy//src/util/color.h **** /**        I'd like for it to be easy and not `Color::PresetColor::Foo`
   7:../../libDaisy//src/util/color.h **** */
   8:../../libDaisy//src/util/color.h **** /** - There's no way to change a color once its been created (without unintuitively reiniting it).
   9:../../libDaisy//src/util/color.h **** */
  10:../../libDaisy//src/util/color.h **** #pragma once
  11:../../libDaisy//src/util/color.h **** #ifndef DSY_COLOR_H
  12:../../libDaisy//src/util/color.h **** #define DSY_COLOR_H
  13:../../libDaisy//src/util/color.h **** #include <stdint.h>
  14:../../libDaisy//src/util/color.h **** 
ARM GAS  /var/folders/5f/72p4brfx5932kssh4q_5ly0m0000gn/T//cc7WxlGd.s 			page 99


  15:../../libDaisy//src/util/color.h **** 
  16:../../libDaisy//src/util/color.h **** namespace daisy
  17:../../libDaisy//src/util/color.h **** {
  18:../../libDaisy//src/util/color.h **** /** @addtogroup utility
  19:../../libDaisy//src/util/color.h ****     @{
  20:../../libDaisy//src/util/color.h **** */
  21:../../libDaisy//src/util/color.h **** 
  22:../../libDaisy//src/util/color.h **** /** Class for handling simple colors */
  23:../../libDaisy//src/util/color.h **** class Color
  24:../../libDaisy//src/util/color.h **** {
  25:../../libDaisy//src/util/color.h ****   public:
  26:../../libDaisy//src/util/color.h ****     Color() {}
  27:../../libDaisy//src/util/color.h ****     ~Color() {}
 2755              		.loc 24 27 5 is_stmt 1 view .LVU748
 2756              	.L149:
 2757              		.loc 24 27 5 is_stmt 0 view .LVU749
 2758              	.LBE943:
 199:Application.cpp **** 		hwPod.UpdateLeds();
 2759              		.loc 15 199 3 is_stmt 1 view .LVU750
 199:Application.cpp **** 		hwPod.UpdateLeds();
 2760              		.loc 15 199 37 is_stmt 0 view .LVU751
 2761 01c2 08EB4803 		add	r3, r8, r8, lsl #1
 2762 01c6 09EB8303 		add	r3, r9, r3, lsl #2
 2763 01ca 93E80700 		ldm	r3, {r0, r1, r2}
 2764 01ce 84E80700 		stm	r4, {r0, r1, r2}
 199:Application.cpp **** 		hwPod.UpdateLeds();
 2765              		.loc 15 199 22 view .LVU752
 2766 01d2 5348     		ldr	r0, .L187+64
 2767 01d4 2146     		mov	r1, r4
 2768 01d6 FFF7FEFF 		bl	_ZN5daisy6RgbLed8SetColorENS_5ColorE
 2769              	.LVL184:
 2770              	.LBB944:
 2771              	.LBI944:
 2772              		.loc 24 27 5 is_stmt 1 view .LVU753
 2773              		.loc 24 27 5 is_stmt 0 view .LVU754
 2774              	.LBE944:
 200:Application.cpp **** 		
 2775              		.loc 15 200 3 is_stmt 1 view .LVU755
 200:Application.cpp **** 		
 2776              		.loc 15 200 19 is_stmt 0 view .LVU756
 2777 01da 4E48     		ldr	r0, .L187+52
 2778 01dc FFF7FEFF 		bl	_ZN5daisy8DaisyPod10UpdateLedsEv
 2779              	.LVL185:
 202:Application.cpp **** 			//hwPod.seed.PrintLine("Daisy Pod IIR Filter Example");
 2780              		.loc 15 202 3 is_stmt 1 view .LVU757
 2781 01e0 2DB9     		cbnz	r5, .L151
 207:Application.cpp **** 			fftMonitor.processFrame();
 2782              		.loc 15 207 4 view .LVU758
 207:Application.cpp **** 			fftMonitor.processFrame();
 2783              		.loc 15 207 25 is_stmt 0 view .LVU759
 2784 01e2 5048     		ldr	r0, .L187+68
 2785 01e4 FFF7FEFF 		bl	_ZN10Controller10printParamEv
 2786              	.LVL186:
 208:Application.cpp **** 		}
 2787              		.loc 15 208 4 is_stmt 1 view .LVU760
 208:Application.cpp **** 		}
 2788              		.loc 15 208 27 is_stmt 0 view .LVU761
ARM GAS  /var/folders/5f/72p4brfx5932kssh4q_5ly0m0000gn/T//cc7WxlGd.s 			page 100


 2789 01e8 4948     		ldr	r0, .L187+48
 2790 01ea FFF7FEFF 		bl	_ZN10FFTMonitor12processFrameEv
 2791              	.LVL187:
 2792              	.L151:
 210:Application.cpp **** 		//System::Delay(1); // Wait 1 ms
 2793              		.loc 15 210 3 is_stmt 1 view .LVU762
 210:Application.cpp **** 		//System::Delay(1); // Wait 1 ms
 2794              		.loc 15 210 10 is_stmt 0 view .LVU763
 2795 01ee 0137     		adds	r7, r7, #1
 2796              	.LVL188:
 210:Application.cpp **** 		//System::Delay(1); // Wait 1 ms
 2797              		.loc 15 210 10 view .LVU764
 2798              	.LBE942:
 151:Application.cpp ****     {
 2799              		.loc 15 151 5 is_stmt 1 view .LVU765
 2800              	.L138:
 151:Application.cpp ****     {
 2801              		.loc 15 151 5 view .LVU766
 2802              	.LBB964:
 153:Application.cpp **** 	
 2803              		.loc 15 153 6 view .LVU767
 2804              	.LBB945:
 2805              	.LBI945:
  37:../../libDaisy//src/daisy_pod.h **** 
  38:../../libDaisy//src/daisy_pod.h ****     /** Init related stuff. */
  39:../../libDaisy//src/daisy_pod.h ****     void Init(bool boost = false);
  40:../../libDaisy//src/daisy_pod.h **** 
  41:../../libDaisy//src/daisy_pod.h ****     /** Wait for a bit
  42:../../libDaisy//src/daisy_pod.h ****     \param del Time to wait in ms.
  43:../../libDaisy//src/daisy_pod.h ****     */
  44:../../libDaisy//src/daisy_pod.h ****     void DelayMs(size_t del);
  45:../../libDaisy//src/daisy_pod.h **** 
  46:../../libDaisy//src/daisy_pod.h ****     /** Starts the callback
  47:../../libDaisy//src/daisy_pod.h ****     \param cb Interleaved callback function
  48:../../libDaisy//src/daisy_pod.h ****     */
  49:../../libDaisy//src/daisy_pod.h ****     void StartAudio(AudioHandle::InterleavingAudioCallback cb);
  50:../../libDaisy//src/daisy_pod.h **** 
  51:../../libDaisy//src/daisy_pod.h ****     /** Starts the callback
  52:../../libDaisy//src/daisy_pod.h ****     \param cb multichannel callback function
  53:../../libDaisy//src/daisy_pod.h ****     */
  54:../../libDaisy//src/daisy_pod.h ****     void StartAudio(AudioHandle::AudioCallback cb);
  55:../../libDaisy//src/daisy_pod.h **** 
  56:../../libDaisy//src/daisy_pod.h ****     /**
  57:../../libDaisy//src/daisy_pod.h ****        Switch callback functions
  58:../../libDaisy//src/daisy_pod.h ****        \param cb New interleaved callback function.
  59:../../libDaisy//src/daisy_pod.h ****     */
  60:../../libDaisy//src/daisy_pod.h ****     void ChangeAudioCallback(AudioHandle::InterleavingAudioCallback cb);
  61:../../libDaisy//src/daisy_pod.h **** 
  62:../../libDaisy//src/daisy_pod.h ****     /**
  63:../../libDaisy//src/daisy_pod.h ****        Switch callback functions
  64:../../libDaisy//src/daisy_pod.h ****        \param cb New multichannel callback function.
  65:../../libDaisy//src/daisy_pod.h ****     */
  66:../../libDaisy//src/daisy_pod.h ****     void ChangeAudioCallback(AudioHandle::AudioCallback cb);
  67:../../libDaisy//src/daisy_pod.h **** 
  68:../../libDaisy//src/daisy_pod.h ****     /** Stops the audio if it is running. */
  69:../../libDaisy//src/daisy_pod.h ****     void StopAudio();
  70:../../libDaisy//src/daisy_pod.h **** 
ARM GAS  /var/folders/5f/72p4brfx5932kssh4q_5ly0m0000gn/T//cc7WxlGd.s 			page 101


  71:../../libDaisy//src/daisy_pod.h ****     /** Updates the Audio Sample Rate, and reinitializes.
  72:../../libDaisy//src/daisy_pod.h ****      ** Audio must be stopped for this to work.
  73:../../libDaisy//src/daisy_pod.h ****      */
  74:../../libDaisy//src/daisy_pod.h ****     void SetAudioSampleRate(SaiHandle::Config::SampleRate samplerate);
  75:../../libDaisy//src/daisy_pod.h **** 
  76:../../libDaisy//src/daisy_pod.h ****     /** Returns the audio sample rate in Hz as a floating point number.
  77:../../libDaisy//src/daisy_pod.h ****      */
  78:../../libDaisy//src/daisy_pod.h ****     float AudioSampleRate();
  79:../../libDaisy//src/daisy_pod.h **** 
  80:../../libDaisy//src/daisy_pod.h ****     /** Sets the number of samples processed per channel by the audio callback.
  81:../../libDaisy//src/daisy_pod.h ****      */
  82:../../libDaisy//src/daisy_pod.h ****     void SetAudioBlockSize(size_t blocksize);
  83:../../libDaisy//src/daisy_pod.h **** 
  84:../../libDaisy//src/daisy_pod.h ****     /** Returns the number of samples per channel in a block of audio. */
  85:../../libDaisy//src/daisy_pod.h ****     size_t AudioBlockSize();
  86:../../libDaisy//src/daisy_pod.h **** 
  87:../../libDaisy//src/daisy_pod.h ****     /** Returns the rate in Hz that the Audio callback is called */
  88:../../libDaisy//src/daisy_pod.h ****     float AudioCallbackRate();
  89:../../libDaisy//src/daisy_pod.h **** 
  90:../../libDaisy//src/daisy_pod.h ****     /**
  91:../../libDaisy//src/daisy_pod.h ****        Start analog to digital conversion.
  92:../../libDaisy//src/daisy_pod.h ****      */
  93:../../libDaisy//src/daisy_pod.h ****     void StartAdc();
  94:../../libDaisy//src/daisy_pod.h **** 
  95:../../libDaisy//src/daisy_pod.h ****     /** Stops Transfering data from the ADC */
  96:../../libDaisy//src/daisy_pod.h ****     void StopAdc();
  97:../../libDaisy//src/daisy_pod.h **** 
  98:../../libDaisy//src/daisy_pod.h ****     /** Call at same rate as analog reads for smooth reading.*/
  99:../../libDaisy//src/daisy_pod.h ****     void ProcessAnalogControls();
 100:../../libDaisy//src/daisy_pod.h **** 
 101:../../libDaisy//src/daisy_pod.h ****     /** Process Analog and Digital Controls */
 102:../../libDaisy//src/daisy_pod.h ****     inline void ProcessAllControls()
 2806              		.loc 1 102 17 view .LVU768
 2807              	.LBB946:
 103:../../libDaisy//src/daisy_pod.h ****     {
 104:../../libDaisy//src/daisy_pod.h ****         ProcessAnalogControls();
 2808              		.loc 1 104 9 view .LVU769
 2809              		.loc 1 104 30 is_stmt 0 view .LVU770
 2810 01f0 4848     		ldr	r0, .L187+52
 2811 01f2 FFF7FEFF 		bl	_ZN5daisy8DaisyPod21ProcessAnalogControlsEv
 2812              	.LVL189:
 105:../../libDaisy//src/daisy_pod.h ****         ProcessDigitalControls();
 2813              		.loc 1 105 9 is_stmt 1 view .LVU771
 2814              		.loc 1 105 31 is_stmt 0 view .LVU772
 2815 01f6 4748     		ldr	r0, .L187+52
 2816 01f8 FFF7FEFF 		bl	_ZN5daisy8DaisyPod22ProcessDigitalControlsEv
 2817              	.LVL190:
 2818              		.loc 1 105 31 view .LVU773
 2819              	.LBE946:
 2820              	.LBE945:
 157:Application.cpp **** 
 2821              		.loc 15 157 3 is_stmt 1 view .LVU774
 2822              	.LBB947:
 2823              	.LBI947:
  22:../../libDaisy//src/hid/encoder.h **** 
  23:../../libDaisy//src/hid/encoder.h ****     /** Initializes the encoder with the specified hardware pins.
  24:../../libDaisy//src/hid/encoder.h ****      * Update rate is to be deprecated in a future release
ARM GAS  /var/folders/5f/72p4brfx5932kssh4q_5ly0m0000gn/T//cc7WxlGd.s 			page 102


  25:../../libDaisy//src/hid/encoder.h ****      */
  26:../../libDaisy//src/hid/encoder.h ****     void Init(dsy_gpio_pin a,
  27:../../libDaisy//src/hid/encoder.h ****               dsy_gpio_pin b,
  28:../../libDaisy//src/hid/encoder.h ****               dsy_gpio_pin click,
  29:../../libDaisy//src/hid/encoder.h ****               float        update_rate = 0.f);
  30:../../libDaisy//src/hid/encoder.h ****     /** Called at update_rate to debounce and handle timing for the switch.
  31:../../libDaisy//src/hid/encoder.h ****      * In order for events not to be missed, its important that the Edge/Pressed checks be made at 
  32:../../libDaisy//src/hid/encoder.h ****      */
  33:../../libDaisy//src/hid/encoder.h ****     void Debounce();
  34:../../libDaisy//src/hid/encoder.h **** 
  35:../../libDaisy//src/hid/encoder.h ****     /** Returns +1 if the encoder was turned clockwise, -1 if it was turned counter-clockwise, or 0
  36:../../libDaisy//src/hid/encoder.h ****     inline int32_t Increment() const { return updated_ ? inc_ : 0; }
 2824              		.loc 9 36 20 view .LVU775
 2825              	.LBB948:
 2826              		.loc 9 36 40 view .LVU776
 2827              		.loc 9 36 56 is_stmt 0 view .LVU777
 2828 01fc 96F84430 		ldrb	r3, [r6, #68]	@ zero_extendqisi2
 2829 0200 3BB1     		cbz	r3, .L141
 2830 0202 736E     		ldr	r3, [r6, #100]
 2831              	.LVL191:
 2832              		.loc 9 36 56 view .LVU778
 2833              	.LBE948:
 2834              	.LBE947:
 159:Application.cpp **** 			controller.adjust(DEC_PARAM_VALUE);
 2835              		.loc 15 159 3 is_stmt 1 view .LVU779
 2836 0204 002B     		cmp	r3, #0
 2837 0206 5DDB     		blt	.L183
 2838              	.LVL192:
 162:Application.cpp **** 			controller.adjust(INC_PARAM_VALUE);
 2839              		.loc 15 162 8 view .LVU780
 2840 0208 03D0     		beq	.L141
 163:Application.cpp **** 		}
 2841              		.loc 15 163 4 view .LVU781
 163:Application.cpp **** 		}
 2842              		.loc 15 163 21 is_stmt 0 view .LVU782
 2843 020a 0021     		movs	r1, #0
 2844 020c 4548     		ldr	r0, .L187+68
 2845 020e FFF7FEFF 		bl	_ZN10Controller6adjustEs
 2846              	.LVL193:
 2847              	.L141:
 165:Application.cpp ****     	// Encoder-knap til at vælge param (trigger én gang)
 2848              		.loc 15 165 3 is_stmt 1 view .LVU783
 2849              	.LBB949:
 2850              	.LBI949:
  37:../../libDaisy//src/hid/encoder.h **** 
  38:../../libDaisy//src/hid/encoder.h ****     /** Returns true if the encoder was just pressed. */
  39:../../libDaisy//src/hid/encoder.h ****     inline bool RisingEdge() const { return sw_.RisingEdge(); }
 2851              		.loc 9 39 17 view .LVU784
 2852              	.LBE949:
 2853              	.LBE964:
 2854              		.loc 9 39 38 view .LVU785
 2855              	.LBB965:
 2856              	.LBB952:
 2857              	.LBB950:
 2858              	.LBI950:
  43:../../libDaisy//src/hid/switch.h **** 
  44:../../libDaisy//src/hid/switch.h ****     /** 
ARM GAS  /var/folders/5f/72p4brfx5932kssh4q_5ly0m0000gn/T//cc7WxlGd.s 			page 103


  45:../../libDaisy//src/hid/switch.h ****     Initializes the switch object with a given port/pin combo.
  46:../../libDaisy//src/hid/switch.h ****     \param pin port/pin object to tell the switch which hardware pin to use.
  47:../../libDaisy//src/hid/switch.h ****     \param update_rate Does nothing. Backwards compatibility until next breaking update.
  48:../../libDaisy//src/hid/switch.h ****     \param t switch type -- Default: TYPE_MOMENTARY
  49:../../libDaisy//src/hid/switch.h ****     \param pol switch polarity -- Default: POLARITY_INVERTED
  50:../../libDaisy//src/hid/switch.h ****     \param pu switch pull up/down -- Default: PULL_UP
  51:../../libDaisy//src/hid/switch.h ****     */
  52:../../libDaisy//src/hid/switch.h ****     void
  53:../../libDaisy//src/hid/switch.h ****     Init(dsy_gpio_pin pin, float update_rate, Type t, Polarity pol, Pull pu);
  54:../../libDaisy//src/hid/switch.h **** 
  55:../../libDaisy//src/hid/switch.h ****     /**
  56:../../libDaisy//src/hid/switch.h ****        Simplified Init.
  57:../../libDaisy//src/hid/switch.h ****        \param pin port/pin object to tell the switch which hardware pin to use.
  58:../../libDaisy//src/hid/switch.h ****        \param update_rate Left for backwards compatibility until next breaking change.
  59:../../libDaisy//src/hid/switch.h ****     */
  60:../../libDaisy//src/hid/switch.h ****     void Init(dsy_gpio_pin pin, float update_rate = 0.f);
  61:../../libDaisy//src/hid/switch.h **** 
  62:../../libDaisy//src/hid/switch.h ****     /** 
  63:../../libDaisy//src/hid/switch.h ****     Called at update_rate to debounce and handle timing for the switch.
  64:../../libDaisy//src/hid/switch.h ****     In order for events not to be missed, its important that the Edge/Pressed checks
  65:../../libDaisy//src/hid/switch.h ****     be made at the same rate as the debounce function is being called.
  66:../../libDaisy//src/hid/switch.h ****     */
  67:../../libDaisy//src/hid/switch.h ****     void Debounce();
  68:../../libDaisy//src/hid/switch.h **** 
  69:../../libDaisy//src/hid/switch.h ****     /** \return true if a button was just pressed. */
  70:../../libDaisy//src/hid/switch.h ****     inline bool RisingEdge() const { return updated_ ? state_ == 0x7f : false; }
 2859              		.loc 7 70 17 view .LVU786
 2860              	.LBB951:
 2861              		.loc 7 70 38 view .LVU787
 2862              		.loc 7 70 54 is_stmt 0 view .LVU788
 2863 0212 96F84C30 		ldrb	r3, [r6, #76]	@ zero_extendqisi2
 2864 0216 1BB1     		cbz	r3, .L143
 2865              	.LVL194:
 2866              		.loc 7 70 54 view .LVU789
 2867              	.LBE951:
 2868              	.LBE950:
 2869              	.LBE952:
 165:Application.cpp ****     	// Encoder-knap til at vælge param (trigger én gang)
 2870              		.loc 15 165 3 view .LVU790
 2871 0218 96F85230 		ldrb	r3, [r6, #82]	@ zero_extendqisi2
 2872 021c 7F2B     		cmp	r3, #127
 2873 021e 4DD0     		beq	.L184
 2874              	.L143:
 170:Application.cpp **** 			eqOn = !eqOn;
 2875              		.loc 15 170 9 is_stmt 1 view .LVU791
 2876              	.LVL195:
 2877              	.LBB953:
 2878              	.LBI953:
 2879              		.loc 7 70 17 view .LVU792
 2880              	.LBB954:
 2881              		.loc 7 70 38 view .LVU793
 2882              		.loc 7 70 54 is_stmt 0 view .LVU794
 2883 0220 96F8B430 		ldrb	r3, [r6, #180]	@ zero_extendqisi2
 2884 0224 1BB1     		cbz	r3, .L144
 2885              	.LVL196:
 2886              		.loc 7 70 54 view .LVU795
 2887              	.LBE954:
ARM GAS  /var/folders/5f/72p4brfx5932kssh4q_5ly0m0000gn/T//cc7WxlGd.s 			page 104


 2888              	.LBE953:
 170:Application.cpp **** 			eqOn = !eqOn;
 2889              		.loc 15 170 9 view .LVU796
 2890 0226 96F8BA30 		ldrb	r3, [r6, #186]	@ zero_extendqisi2
 2891 022a 7F2B     		cmp	r3, #127
 2892 022c 2ED0     		beq	.L185
 2893              	.LVL197:
 2894              	.L144:
 176:Application.cpp **** 			band = (int)controller.adjust(SEL_BAND);
 2895              		.loc 15 176 4 is_stmt 1 view .LVU797
 2896              	.LBB955:
 2897              	.LBI955:
 2898              		.loc 7 70 17 view .LVU798
 2899              	.LBB956:
 2900              		.loc 7 70 38 view .LVU799
 2901              		.loc 7 70 54 is_stmt 0 view .LVU800
 2902 022e 96F8C430 		ldrb	r3, [r6, #196]	@ zero_extendqisi2
 2903 0232 1BB1     		cbz	r3, .L180
 2904              	.LVL198:
 2905              		.loc 7 70 54 view .LVU801
 2906              	.LBE956:
 2907              	.LBE955:
 176:Application.cpp **** 			band = (int)controller.adjust(SEL_BAND);
 2908              		.loc 15 176 4 view .LVU802
 2909 0234 96F8CA30 		ldrb	r3, [r6, #202]	@ zero_extendqisi2
 2910 0238 7F2B     		cmp	r3, #127
 2911 023a 2FD0     		beq	.L147
 2912              	.L180:
 202:Application.cpp **** 			//hwPod.seed.PrintLine("Daisy Pod IIR Filter Example");
 2913              		.loc 15 202 15 view .LVU803
 2914 023c BD09     		lsrs	r5, r7, #6
 2915 023e 3A4A     		ldr	r2, .L187+72
 2916 0240 3A4B     		ldr	r3, .L187+76
 2917 0242 A2FB0525 		umull	r2, r5, r2, r5
 2918 0246 AD09     		lsrs	r5, r5, #6
 2919 0248 03FB1575 		mls	r5, r3, r5, r7
 2920              	.LVL199:
 2921              	.L146:
 182:Application.cpp **** 
 2922              		.loc 15 182 3 is_stmt 1 view .LVU804
 182:Application.cpp **** 
 2923              		.loc 15 182 18 is_stmt 0 view .LVU805
 2924 024c 3148     		ldr	r0, .L187+52
 2925 024e FFF7FEFF 		bl	_ZN5daisy8DaisyPod9ClearLedsEv
 2926              	.LVL200:
 185:Application.cpp **** 
 2927              		.loc 15 185 3 is_stmt 1 view .LVU806
 185:Application.cpp **** 
 2928              		.loc 15 185 40 is_stmt 0 view .LVU807
 2929 0252 3448     		ldr	r0, .L187+68
 2930 0254 FFF7FEFF 		bl	_ZN10Controller8getParamEv
 2931              	.LVL201:
 188:Application.cpp **** 		if (eqOn && (param == PM_GAIN)){
 2932              		.loc 15 188 3 is_stmt 1 view .LVU808
 189:Application.cpp **** 			hwPod.led1.SetColor(my_colors[0]);
 2933              		.loc 15 189 3 view .LVU809
 2934 0258 0028     		cmp	r0, #0
ARM GAS  /var/folders/5f/72p4brfx5932kssh4q_5ly0m0000gn/T//cc7WxlGd.s 			page 105


 2935 025a A7D0     		beq	.L186
 2936              	.L148:
 192:Application.cpp **** 			hwPod.led1.SetColor(my_colors[2]);
 2937              		.loc 15 192 8 view .LVU810
 2938 025c 0128     		cmp	r0, #1
 2939 025e 0BD1     		bne	.L150
 2940 0260 BAF1000F 		cmp	r10, #0
 2941 0264 08D0     		beq	.L150
 193:Application.cpp **** 		}
 2942              		.loc 15 193 4 view .LVU811
 193:Application.cpp **** 		}
 2943              		.loc 15 193 35 is_stmt 0 view .LVU812
 2944 0266 9BE80700 		ldm	fp, {r0, r1, r2}
 2945              	.LVL202:
 193:Application.cpp **** 		}
 2946              		.loc 15 193 35 view .LVU813
 2947 026a 84E80700 		stm	r4, {r0, r1, r2}
 193:Application.cpp **** 		}
 2948              		.loc 15 193 23 view .LVU814
 2949 026e 2146     		mov	r1, r4
 2950 0270 2A48     		ldr	r0, .L187+60
 2951 0272 FFF7FEFF 		bl	_ZN5daisy6RgbLed8SetColorENS_5ColorE
 2952              	.LVL203:
 2953              	.LBB957:
 2954              	.LBI957:
 2955              		.loc 24 27 5 is_stmt 1 view .LVU815
 2956              		.loc 24 27 5 is_stmt 0 view .LVU816
 2957              	.LBE957:
 2958 0276 A4E7     		b	.L149
 2959              	.LVL204:
 2960              	.L150:
 197:Application.cpp **** 		}
 2961              		.loc 15 197 4 is_stmt 1 view .LVU817
 197:Application.cpp **** 		}
 2962              		.loc 15 197 35 is_stmt 0 view .LVU818
 2963 0278 234B     		ldr	r3, .L187+40
 2964 027a 93E80700 		ldm	r3, {r0, r1, r2}
 2965              	.LVL205:
 197:Application.cpp **** 		}
 2966              		.loc 15 197 35 view .LVU819
 2967 027e 84E80700 		stm	r4, {r0, r1, r2}
 197:Application.cpp **** 		}
 2968              		.loc 15 197 23 view .LVU820
 2969 0282 2146     		mov	r1, r4
 2970 0284 2548     		ldr	r0, .L187+60
 2971 0286 FFF7FEFF 		bl	_ZN5daisy6RgbLed8SetColorENS_5ColorE
 2972              	.LVL206:
 2973              	.LBB958:
 2974              	.LBI958:
 2975              		.loc 24 27 5 is_stmt 1 view .LVU821
 2976              		.loc 24 27 5 is_stmt 0 view .LVU822
 2977 028a 9AE7     		b	.L149
 2978              	.L185:
 2979              		.loc 24 27 5 view .LVU823
 2980              	.LBE958:
 171:Application.cpp **** 			controller.setBypass(!eqOn);
 2981              		.loc 15 171 4 is_stmt 1 view .LVU824
ARM GAS  /var/folders/5f/72p4brfx5932kssh4q_5ly0m0000gn/T//cc7WxlGd.s 			page 106


 171:Application.cpp **** 			controller.setBypass(!eqOn);
 2982              		.loc 15 171 9 is_stmt 0 view .LVU825
 2983 028c 8AF00103 		eor	r3, r10, #1
 2984              	.LVL207:
 172:Application.cpp **** 		}
 2985              		.loc 15 172 4 is_stmt 1 view .LVU826
 172:Application.cpp **** 		}
 2986              		.loc 15 172 24 is_stmt 0 view .LVU827
 2987 0290 5146     		mov	r1, r10
 2988 0292 2448     		ldr	r0, .L187+68
 171:Application.cpp **** 			controller.setBypass(!eqOn);
 2989              		.loc 15 171 9 view .LVU828
 2990 0294 9A46     		mov	r10, r3
 172:Application.cpp **** 		}
 2991              		.loc 15 172 24 view .LVU829
 2992 0296 FFF7FEFF 		bl	_ZN10Controller9setBypassEb
 2993              	.LVL208:
 172:Application.cpp **** 		}
 2994              		.loc 15 172 24 view .LVU830
 2995 029a C8E7     		b	.L144
 2996              	.L147:
 177:Application.cpp **** 			hwPod.seed.PrintLine("Equalizer band %d", band);
 2997              		.loc 15 177 4 is_stmt 1 view .LVU831
 177:Application.cpp **** 			hwPod.seed.PrintLine("Equalizer band %d", band);
 2998              		.loc 15 177 33 is_stmt 0 view .LVU832
 2999 029c 0321     		movs	r1, #3
 3000 029e 2148     		ldr	r0, .L187+68
 3001 02a0 FFF7FEFF 		bl	_ZN10Controller6adjustEs
 3002              	.LVL209:
 177:Application.cpp **** 			hwPod.seed.PrintLine("Equalizer band %d", band);
 3003              		.loc 15 177 9 view .LVU833
 3004 02a4 FDEEC07A 		vcvt.s32.f32	s15, s0
 3005 02a8 0127     		movs	r7, #1
 3006              	.LVL210:
 3007              	.LBB959:
 3008              	.LBB960:
 128:../../libDaisy//src/daisy_seed.h ****     }
 3009              		.loc 10 128 23 view .LVU834
 3010 02aa 2148     		ldr	r0, .L187+80
 3011 02ac 17EE901A 		vmov	r1, s15	@ int
 3012              	.LBE960:
 3013              	.LBE959:
 177:Application.cpp **** 			hwPod.seed.PrintLine("Equalizer band %d", band);
 3014              		.loc 15 177 9 view .LVU835
 3015 02b0 17EE908A 		vmov	r8, s15	@ int
 3016              	.LVL211:
 178:Application.cpp **** 			counter = 1;
 3017              		.loc 15 178 4 is_stmt 1 view .LVU836
 3018              	.LBB962:
 3019              	.LBI959:
 126:../../libDaisy//src/daisy_seed.h ****     {
 3020              		.loc 10 126 17 view .LVU837
 3021              	.LBE962:
 179:Application.cpp **** 		}
 3022              		.loc 15 179 12 is_stmt 0 view .LVU838
 3023 02b4 3D46     		mov	r5, r7
 3024              	.LBB963:
ARM GAS  /var/folders/5f/72p4brfx5932kssh4q_5ly0m0000gn/T//cc7WxlGd.s 			page 107


 3025              	.LBB961:
 128:../../libDaisy//src/daisy_seed.h ****     }
 3026              		.loc 10 128 23 view .LVU839
 3027 02b6 FFF7FEFF 		bl	_ZN5daisy6LoggerILNS_17LoggerDestinationE1EE9PrintLineEPKcz
 3028              	.LVL212:
 128:../../libDaisy//src/daisy_seed.h ****     }
 3029              		.loc 10 128 23 view .LVU840
 3030              	.LBE961:
 3031              	.LBE963:
 179:Application.cpp **** 		}
 3032              		.loc 15 179 4 is_stmt 1 view .LVU841
 179:Application.cpp **** 		}
 3033              		.loc 15 179 4 is_stmt 0 view .LVU842
 3034 02ba C7E7     		b	.L146
 3035              	.LVL213:
 3036              	.L184:
 167:Application.cpp **** 		}
 3037              		.loc 15 167 4 is_stmt 1 view .LVU843
 167:Application.cpp **** 		}
 3038              		.loc 15 167 23 is_stmt 0 view .LVU844
 3039 02bc 1948     		ldr	r0, .L187+68
 3040 02be FFF7FEFF 		bl	_ZN10Controller8incParamEv
 3041              	.LVL214:
 3042 02c2 ADE7     		b	.L143
 3043              	.LVL215:
 3044              	.L183:
 160:Application.cpp **** 		}
 3045              		.loc 15 160 4 is_stmt 1 view .LVU845
 160:Application.cpp **** 		}
 3046              		.loc 15 160 21 is_stmt 0 view .LVU846
 3047 02c4 0121     		movs	r1, #1
 3048 02c6 1748     		ldr	r0, .L187+68
 3049 02c8 FFF7FEFF 		bl	_ZN10Controller6adjustEs
 3050              	.LVL216:
 160:Application.cpp **** 		}
 3051              		.loc 15 160 21 view .LVU847
 3052 02cc A1E7     		b	.L141
 3053              	.LVL217:
 3054              	.L181:
 160:Application.cpp **** 		}
 3055              		.loc 15 160 21 view .LVU848
 3056              	.LBE965:
 3057              	.LBB966:
 3058              	.LBB917:
  46:FFT.h         ****             return false;
 3059              		.loc 18 46 13 is_stmt 1 view .LVU849
  46:FFT.h         ****             return false;
 3060              		.loc 18 46 24 is_stmt 0 view .LVU850
 3061 02ce 1948     		ldr	r0, .L187+84
 3062 02d0 FFF7FEFF 		bl	_ZN3FFT11freeBuffersEv
 3063              	.LVL218:
  47:FFT.h         ****         }
 3064              		.loc 18 47 13 is_stmt 1 view .LVU851
  47:FFT.h         ****         }
 3065              		.loc 18 47 20 is_stmt 0 view .LVU852
 3066 02d4 25E7     		b	.L129
 3067              	.LVL219:
ARM GAS  /var/folders/5f/72p4brfx5932kssh4q_5ly0m0000gn/T//cc7WxlGd.s 			page 108


 3068              	.L182:
 3069              	.LBB914:
 3070              	.LBB913:
 3071              	.LBB912:
 181:FFT.h         ****             bitrev[i] = bitReverse(i, log2N);
 3072              		.loc 18 181 32 is_stmt 1 view .LVU853
 3073 02d6 002D     		cmp	r5, #0
 3074 02d8 3FF423AF 		beq	.L129
 3075 02dc 0AE7     		b	.L133
 3076              	.L188:
 3077 02de 00BF     		.align	3
 3078              	.L187:
 3079 02e0 182D4454 		.word	1413754136
 3080 02e4 FB211940 		.word	1075388923
 3081 02e8 00000000 		.word	.LANCHOR1
 3082 02ec 00000000 		.word	.LANCHOR2
 3083 02f0 00000000 		.word	.LANCHOR5
 3084 02f4 0C000000 		.word	.LANCHOR5+12
 3085 02f8 18000000 		.word	.LANCHOR5+24
 3086 02fc 24000000 		.word	.LANCHOR5+36
 3087 0300 30000000 		.word	.LANCHOR5+48
 3088 0304 3C000000 		.word	.LANCHOR5+60
 3089 0308 48000000 		.word	.LANCHOR5+72
 3090 030c DB0FC9C0 		.word	-1060565029
 3091 0310 00000000 		.word	_ZL10fftMonitor
 3092 0314 00000000 		.word	_ZL5hwPod
 3093 0318 00000000 		.word	_Z13AudioCallbackPKPKfPPfj
 3094 031c D8000000 		.word	_ZL5hwPod+216
 3095 0320 2C010000 		.word	_ZL5hwPod+300
 3096 0324 00000000 		.word	.LANCHOR3
 3097 0328 632D3E05 		.word	87960931
 3098 032c 400D0300 		.word	200000
 3099 0330 00000000 		.word	.LC7
 3100 0334 00000000 		.word	.LANCHOR0
 3101              	.LBE912:
 3102              	.LBE913:
 3103              	.LBE914:
 3104              	.LBE917:
 3105              	.LBE966:
 3106              		.cfi_endproc
 3107              	.LFE4742:
 3109              		.section	.bss._ZL10controller,"aw",%nobits
 3110              		.align	2
 3111              		.set	.LANCHOR3,. + 0
 3114              	_ZL10controller:
 3115 0000 00000000 		.space	20
 3115      00000000 
 3115      00000000 
 3115      00000000 
 3115      00000000 
 3116              		.section	.bss._ZL10fftMonitor,"aw",%nobits
 3117              		.align	2
 3120              	_ZL10fftMonitor:
 3121 0000 00000000 		.space	8232
 3121      00000000 
 3121      00000000 
 3121      00000000 
ARM GAS  /var/folders/5f/72p4brfx5932kssh4q_5ly0m0000gn/T//cc7WxlGd.s 			page 109


 3121      00000000 
 3122              		.section	.bss._ZL13equalizerLeft,"aw",%nobits
 3123              		.align	2
 3124              		.set	.LANCHOR1,. + 0
 3127              	_ZL13equalizerLeft:
 3128 0000 00000000 		.space	324
 3128      00000000 
 3128      00000000 
 3128      00000000 
 3128      00000000 
 3129              		.section	.bss._ZL14equalizerRight,"aw",%nobits
 3130              		.align	2
 3131              		.set	.LANCHOR2,. + 0
 3134              	_ZL14equalizerRight:
 3135 0000 00000000 		.space	324
 3135      00000000 
 3135      00000000 
 3135      00000000 
 3135      00000000 
 3136              		.section	.bss._ZL3fft,"aw",%nobits
 3137              		.align	2
 3138              		.set	.LANCHOR0,. + 0
 3141              	_ZL3fft:
 3142 0000 00000000 		.space	16
 3142      00000000 
 3142      00000000 
 3142      00000000 
 3143              		.section	.bss._ZL5hwPod,"aw",%nobits
 3144              		.align	2
 3147              	_ZL5hwPod:
 3148 0000 00000000 		.space	37600
 3148      00000000 
 3148      00000000 
 3148      00000000 
 3148      00000000 
 3149              		.section	.bss._ZL5start,"aw",%nobits
 3150              		.align	2
 3151              		.set	.LANCHOR4,. + 0
 3154              	_ZL5start:
 3155 0000 00000000 		.space	4
 3156              		.section	.bss._ZL9my_colors,"aw",%nobits
 3157              		.align	2
 3158              		.set	.LANCHOR5,. + 0
 3161              	_ZL9my_colors:
 3162 0000 00000000 		.space	84
 3162      00000000 
 3162      00000000 
 3162      00000000 
 3162      00000000 
 3163              		.section	.sdram_bss,"aw"
 3164              		.align	2
 3167              	_ZL4imag:
 3168 0000 00000000 		.space	16384
 3168      00000000 
 3168      00000000 
 3168      00000000 
 3168      00000000 
ARM GAS  /var/folders/5f/72p4brfx5932kssh4q_5ly0m0000gn/T//cc7WxlGd.s 			page 110


 3171              	_ZL4real:
 3172 4000 00000000 		.space	16384
 3172      00000000 
 3172      00000000 
 3172      00000000 
 3172      00000000 
 3175              	_ZL12sampleBuffer:
 3176 8000 00000000 		.space	16384
 3176      00000000 
 3176      00000000 
 3176      00000000 
 3176      00000000 
 3177              		.text
 3178              	.Letext0:
 3179              		.file 25 "/Library/DaisyToolchain/0.2.0/arm/arm-none-eabi/include/machine/_default_types.h"
 3180              		.file 26 "/Library/DaisyToolchain/0.2.0/arm/arm-none-eabi/include/sys/_stdint.h"
 3181              		.file 27 "/Library/DaisyToolchain/0.2.0/arm/arm-none-eabi/include/stdint.h"
 3182              		.file 28 "/Library/DaisyToolchain/0.2.0/arm/lib/gcc/arm-none-eabi/10.3.1/include/stddef.h"
 3183              		.file 29 "/Library/DaisyToolchain/0.2.0/arm/arm-none-eabi/include/c++/10.3.1/bits/cpp_type_traits.
 3184              		.file 30 "/Library/DaisyToolchain/0.2.0/arm/arm-none-eabi/include/c++/10.3.1/cmath"
 3185              		.file 31 "/Library/DaisyToolchain/0.2.0/arm/arm-none-eabi/include/c++/10.3.1/bits/std_abs.h"
 3186              		.file 32 "/Library/DaisyToolchain/0.2.0/arm/arm-none-eabi/include/c++/10.3.1/cstdlib"
 3187              		.file 33 "/Library/DaisyToolchain/0.2.0/arm/arm-none-eabi/include/c++/10.3.1/cstdint"
 3188              		.file 34 "/Library/DaisyToolchain/0.2.0/arm/arm-none-eabi/include/c++/10.3.1/arm-none-eabi/thumb/v
 3189              		.file 35 "/Library/DaisyToolchain/0.2.0/arm/arm-none-eabi/include/c++/10.3.1/type_traits"
 3190              		.file 36 "/Library/DaisyToolchain/0.2.0/arm/arm-none-eabi/include/c++/10.3.1/bits/stl_pair.h"
 3191              		.file 37 "/Library/DaisyToolchain/0.2.0/arm/arm-none-eabi/include/c++/10.3.1/debug/debug.h"
 3192              		.file 38 "/Library/DaisyToolchain/0.2.0/arm/arm-none-eabi/include/c++/10.3.1/bits/algorithmfwd.h"
 3193              		.file 39 "/Library/DaisyToolchain/0.2.0/arm/arm-none-eabi/include/c++/10.3.1/bits/exception_ptr.h"
 3194              		.file 40 "/Library/DaisyToolchain/0.2.0/arm/arm-none-eabi/include/c++/10.3.1/initializer_list"
 3195              		.file 41 "/Library/DaisyToolchain/0.2.0/arm/arm-none-eabi/include/c++/10.3.1/cstdarg"
 3196              		.file 42 "/Library/DaisyToolchain/0.2.0/arm/arm-none-eabi/include/c++/10.3.1/cstdio"
 3197              		.file 43 "/Library/DaisyToolchain/0.2.0/arm/arm-none-eabi/include/c++/10.3.1/cstring"
 3198              		.file 44 "/Library/DaisyToolchain/0.2.0/arm/arm-none-eabi/include/c++/10.3.1/cwchar"
 3199              		.file 45 "/Library/DaisyToolchain/0.2.0/arm/arm-none-eabi/include/c++/10.3.1/clocale"
 3200              		.file 46 "/Library/DaisyToolchain/0.2.0/arm/arm-none-eabi/include/c++/10.3.1/bits/basic_string.h"
 3201              		.file 47 "/Library/DaisyToolchain/0.2.0/arm/arm-none-eabi/include/c++/10.3.1/bits/stl_iterator.h"
 3202              		.file 48 "/Library/DaisyToolchain/0.2.0/arm/arm-none-eabi/include/c++/10.3.1/bits/predefined_ops.h
 3203              		.file 49 "/Library/DaisyToolchain/0.2.0/arm/arm-none-eabi/include/sys/_types.h"
 3204              		.file 50 "/Library/DaisyToolchain/0.2.0/arm/arm-none-eabi/include/sys/reent.h"
 3205              		.file 51 "/Library/DaisyToolchain/0.2.0/arm/arm-none-eabi/include/sys/lock.h"
 3206              		.file 52 "/Library/DaisyToolchain/0.2.0/arm/arm-none-eabi/include/math.h"
 3207              		.file 53 "/Library/DaisyToolchain/0.2.0/arm/arm-none-eabi/include/stdlib.h"
 3208              		.file 54 "/Library/DaisyToolchain/0.2.0/arm/arm-none-eabi/include/c++/10.3.1/math.h"
 3209              		.file 55 "/Library/DaisyToolchain/0.2.0/arm/arm-none-eabi/include/c++/10.3.1/stdlib.h"
 3210              		.file 56 "../../libDaisy//src/daisy_core.h"
 3211              		.file 57 "../../libDaisy//src/per/tim.h"
 3212              		.file 58 "../../libDaisy//src/hid/MidiEvent.h"
 3213              		.file 59 "../../libDaisy//src/hid/logger_impl.h"
 3214              		.file 60 "../../libDaisy//src/util/wav_format.h"
 3215              		.file 61 "../../libDaisy//src/dev/max11300.h"
 3216              		.file 62 "../../libDaisy//src/hid/logger.h"
 3217              		.file 63 "../../libDaisy//src/per/gpio.h"
 3218              		.file 64 "../../libDaisy//src/dev/sdram.h"
 3219              		.file 65 "/Library/DaisyToolchain/0.2.0/arm/lib/gcc/arm-none-eabi/10.3.1/include/stdarg.h"
 3220              		.file 66 "/Library/DaisyToolchain/0.2.0/arm/arm-none-eabi/include/stdio.h"
 3221              		.file 67 "/Library/DaisyToolchain/0.2.0/arm/arm-none-eabi/include/string.h"
ARM GAS  /var/folders/5f/72p4brfx5932kssh4q_5ly0m0000gn/T//cc7WxlGd.s 			page 111


 3222              		.file 68 "../../DaisySP//Source/Control/adenv.h"
 3223              		.file 69 "../../DaisySP//Source/Utility/dsp.h"
 3224              		.file 70 "/Library/DaisyToolchain/0.2.0/arm/arm-none-eabi/include/wchar.h"
 3225              		.file 71 "/Library/DaisyToolchain/0.2.0/arm/arm-none-eabi/include/locale.h"
 3226              		.file 72 "Controller.h"
 3227              		.file 73 "../../libDaisy//src/dev/sr_595.h"
 3228              		.file 74 "/Library/DaisyToolchain/0.2.0/arm/arm-none-eabi/include/c++/10.3.1/new"
 3229              		.file 75 "/Library/DaisyToolchain/0.2.0/arm/arm-none-eabi/include/assert.h"
 3230              		.file 76 "<built-in>"
ARM GAS  /var/folders/5f/72p4brfx5932kssh4q_5ly0m0000gn/T//cc7WxlGd.s 			page 112


DEFINED SYMBOLS
                            *ABS*:0000000000000000 Application.cpp
/var/folders/5f/72p4brfx5932kssh4q_5ly0m0000gn/T//cc7WxlGd.s:19     .text._ZN5daisy8DaisyPodD2Ev:0000000000000000 $t
/var/folders/5f/72p4brfx5932kssh4q_5ly0m0000gn/T//cc7WxlGd.s:26     .text._ZN5daisy8DaisyPodD2Ev:0000000000000000 _ZN5daisy8DaisyPodD2Ev
/var/folders/5f/72p4brfx5932kssh4q_5ly0m0000gn/T//cc7WxlGd.s:26     .text._ZN5daisy8DaisyPodD2Ev:0000000000000000 _ZN5daisy8DaisyPodD1Ev
/var/folders/5f/72p4brfx5932kssh4q_5ly0m0000gn/T//cc7WxlGd.s:170    .text.__tcf_0:0000000000000000 $t
/var/folders/5f/72p4brfx5932kssh4q_5ly0m0000gn/T//cc7WxlGd.s:176    .text.__tcf_0:0000000000000000 __tcf_0
/var/folders/5f/72p4brfx5932kssh4q_5ly0m0000gn/T//cc7WxlGd.s:190    .text._ZN10FFTMonitorD2Ev:0000000000000000 $t
/var/folders/5f/72p4brfx5932kssh4q_5ly0m0000gn/T//cc7WxlGd.s:197    .text._ZN10FFTMonitorD2Ev:0000000000000000 _ZN10FFTMonitorD2Ev
/var/folders/5f/72p4brfx5932kssh4q_5ly0m0000gn/T//cc7WxlGd.s:197    .text._ZN10FFTMonitorD2Ev:0000000000000000 _ZN10FFTMonitorD1Ev
/var/folders/5f/72p4brfx5932kssh4q_5ly0m0000gn/T//cc7WxlGd.s:241    .text._ZN3FFTD2Ev:0000000000000000 $t
/var/folders/5f/72p4brfx5932kssh4q_5ly0m0000gn/T//cc7WxlGd.s:248    .text._ZN3FFTD2Ev:0000000000000000 _ZN3FFTD2Ev
/var/folders/5f/72p4brfx5932kssh4q_5ly0m0000gn/T//cc7WxlGd.s:248    .text._ZN3FFTD2Ev:0000000000000000 _ZN3FFTD1Ev
/var/folders/5f/72p4brfx5932kssh4q_5ly0m0000gn/T//cc7WxlGd.s:310    .text._ZN3FFT11freeBuffersEv:0000000000000000 $t
/var/folders/5f/72p4brfx5932kssh4q_5ly0m0000gn/T//cc7WxlGd.s:317    .text._ZN3FFT11freeBuffersEv:0000000000000000 _ZN3FFT11freeBuffersEv
/var/folders/5f/72p4brfx5932kssh4q_5ly0m0000gn/T//cc7WxlGd.s:372    .text._ZN14WindowFunction19computeCoefficientsEv:0000000000000000 $t
/var/folders/5f/72p4brfx5932kssh4q_5ly0m0000gn/T//cc7WxlGd.s:379    .text._ZN14WindowFunction19computeCoefficientsEv:0000000000000000 _ZN14WindowFunction19computeCoefficientsEv
/var/folders/5f/72p4brfx5932kssh4q_5ly0m0000gn/T//cc7WxlGd.s:406    .text._ZN14WindowFunction19computeCoefficientsEv:0000000000000010 $d
/var/folders/5f/72p4brfx5932kssh4q_5ly0m0000gn/T//cc7WxlGd.s:412    .text._ZN14WindowFunction19computeCoefficientsEv:0000000000000016 $t
/var/folders/5f/72p4brfx5932kssh4q_5ly0m0000gn/T//cc7WxlGd.s:821    .text._ZN14WindowFunction19computeCoefficientsEv:00000000000001c0 $d
/var/folders/5f/72p4brfx5932kssh4q_5ly0m0000gn/T//cc7WxlGd.s:831    .rodata._ZN10FFTMonitor12processFrameEv.str1.4:0000000000000000 $d
/var/folders/5f/72p4brfx5932kssh4q_5ly0m0000gn/T//cc7WxlGd.s:853    .text._ZN10FFTMonitor12processFrameEv:0000000000000000 $t
/var/folders/5f/72p4brfx5932kssh4q_5ly0m0000gn/T//cc7WxlGd.s:860    .text._ZN10FFTMonitor12processFrameEv:0000000000000000 _ZN10FFTMonitor12processFrameEv
/var/folders/5f/72p4brfx5932kssh4q_5ly0m0000gn/T//cc7WxlGd.s:1457   .text._ZN10FFTMonitor12processFrameEv:0000000000000208 $d
/var/folders/5f/72p4brfx5932kssh4q_5ly0m0000gn/T//cc7WxlGd.s:3175   .sdram_bss:0000000000008000 _ZL12sampleBuffer
/var/folders/5f/72p4brfx5932kssh4q_5ly0m0000gn/T//cc7WxlGd.s:3171   .sdram_bss:0000000000004000 _ZL4real
/var/folders/5f/72p4brfx5932kssh4q_5ly0m0000gn/T//cc7WxlGd.s:3167   .sdram_bss:0000000000000000 _ZL4imag
/var/folders/5f/72p4brfx5932kssh4q_5ly0m0000gn/T//cc7WxlGd.s:1475   .text.startup._GLOBAL__sub_I__Z13AudioCallbackPKPKfPPfj:0000000000000000 $t
/var/folders/5f/72p4brfx5932kssh4q_5ly0m0000gn/T//cc7WxlGd.s:1481   .text.startup._GLOBAL__sub_I__Z13AudioCallbackPKPKfPPfj:0000000000000000 _GLOBAL__sub_I__Z13AudioCallbackPKPKfPPfj
/var/folders/5f/72p4brfx5932kssh4q_5ly0m0000gn/T//cc7WxlGd.s:2033   .text.startup._GLOBAL__sub_I__Z13AudioCallbackPKPKfPPfj:00000000000000d8 $d
/var/folders/5f/72p4brfx5932kssh4q_5ly0m0000gn/T//cc7WxlGd.s:3147   .bss._ZL5hwPod:0000000000000000 _ZL5hwPod
/var/folders/5f/72p4brfx5932kssh4q_5ly0m0000gn/T//cc7WxlGd.s:3120   .bss._ZL10fftMonitor:0000000000000000 _ZL10fftMonitor
/var/folders/5f/72p4brfx5932kssh4q_5ly0m0000gn/T//cc7WxlGd.s:2053   .init_array:0000000000000000 $d
/var/folders/5f/72p4brfx5932kssh4q_5ly0m0000gn/T//cc7WxlGd.s:2056   .text._Z13AudioCallbackPKPKfPPfj:0000000000000000 $t
/var/folders/5f/72p4brfx5932kssh4q_5ly0m0000gn/T//cc7WxlGd.s:2063   .text._Z13AudioCallbackPKPKfPPfj:0000000000000000 _Z13AudioCallbackPKPKfPPfj
/var/folders/5f/72p4brfx5932kssh4q_5ly0m0000gn/T//cc7WxlGd.s:2234   .text._Z13AudioCallbackPKPKfPPfj:0000000000000084 $d
/var/folders/5f/72p4brfx5932kssh4q_5ly0m0000gn/T//cc7WxlGd.s:2243   .rodata.main.str1.4:0000000000000000 $d
/var/folders/5f/72p4brfx5932kssh4q_5ly0m0000gn/T//cc7WxlGd.s:2247   .text.startup.main:0000000000000000 $t
/var/folders/5f/72p4brfx5932kssh4q_5ly0m0000gn/T//cc7WxlGd.s:2254   .text.startup.main:0000000000000000 main
/var/folders/5f/72p4brfx5932kssh4q_5ly0m0000gn/T//cc7WxlGd.s:3079   .text.startup.main:00000000000002e0 $d
/var/folders/5f/72p4brfx5932kssh4q_5ly0m0000gn/T//cc7WxlGd.s:3110   .bss._ZL10controller:0000000000000000 $d
/var/folders/5f/72p4brfx5932kssh4q_5ly0m0000gn/T//cc7WxlGd.s:3114   .bss._ZL10controller:0000000000000000 _ZL10controller
/var/folders/5f/72p4brfx5932kssh4q_5ly0m0000gn/T//cc7WxlGd.s:3117   .bss._ZL10fftMonitor:0000000000000000 $d
/var/folders/5f/72p4brfx5932kssh4q_5ly0m0000gn/T//cc7WxlGd.s:3123   .bss._ZL13equalizerLeft:0000000000000000 $d
/var/folders/5f/72p4brfx5932kssh4q_5ly0m0000gn/T//cc7WxlGd.s:3127   .bss._ZL13equalizerLeft:0000000000000000 _ZL13equalizerLeft
/var/folders/5f/72p4brfx5932kssh4q_5ly0m0000gn/T//cc7WxlGd.s:3130   .bss._ZL14equalizerRight:0000000000000000 $d
/var/folders/5f/72p4brfx5932kssh4q_5ly0m0000gn/T//cc7WxlGd.s:3134   .bss._ZL14equalizerRight:0000000000000000 _ZL14equalizerRight
/var/folders/5f/72p4brfx5932kssh4q_5ly0m0000gn/T//cc7WxlGd.s:3137   .bss._ZL3fft:0000000000000000 $d
/var/folders/5f/72p4brfx5932kssh4q_5ly0m0000gn/T//cc7WxlGd.s:3141   .bss._ZL3fft:0000000000000000 _ZL3fft
/var/folders/5f/72p4brfx5932kssh4q_5ly0m0000gn/T//cc7WxlGd.s:3144   .bss._ZL5hwPod:0000000000000000 $d
/var/folders/5f/72p4brfx5932kssh4q_5ly0m0000gn/T//cc7WxlGd.s:3150   .bss._ZL5start:0000000000000000 $d
/var/folders/5f/72p4brfx5932kssh4q_5ly0m0000gn/T//cc7WxlGd.s:3154   .bss._ZL5start:0000000000000000 _ZL5start
/var/folders/5f/72p4brfx5932kssh4q_5ly0m0000gn/T//cc7WxlGd.s:3157   .bss._ZL9my_colors:0000000000000000 $d
/var/folders/5f/72p4brfx5932kssh4q_5ly0m0000gn/T//cc7WxlGd.s:3161   .bss._ZL9my_colors:0000000000000000 _ZL9my_colors
/var/folders/5f/72p4brfx5932kssh4q_5ly0m0000gn/T//cc7WxlGd.s:3164   .sdram_bss:0000000000000000 $d
                           .group:0000000000000000 _ZN5daisy8DaisyPodD5Ev
                           .group:0000000000000000 _ZN10FFTMonitorD5Ev
ARM GAS  /var/folders/5f/72p4brfx5932kssh4q_5ly0m0000gn/T//cc7WxlGd.s 			page 113


                           .group:0000000000000000 _ZN3FFTD5Ev

UNDEFINED SYMBOLS
_ZdaPv
cosf
memcpy
memset
_ZN5daisy6LoggerILNS_17LoggerDestinationE1EE9PrintLineEPKcz
sqrtf
__assert_func
__aeabi_atexit
_ZN5daisy17MidiUartTransport6ConfigC1Ev
_Znaj
_ZN9EqualizerC1Ev
_ZN10ControllerC1EP9EqualizerS1_PN5daisy8DaisyPodE
__dso_handle
_ZN9EqualizerD1Ev
_ZN10ControllerD1Ev
_ZN5daisy6System7GetTickEv
_ZN9Equalizer7ProcessEf
_ZN9Equalizer4InitEi
_ZN5daisy5Color4InitENS0_11PresetColorE
sinf
_ZN5daisy8DaisyPod4InitEb
_ZN5daisy6LoggerILNS_17LoggerDestinationE1EE8StartLogEb
_ZN5daisy8DaisyPod17SetAudioBlockSizeEj
_ZN5daisy8DaisyPod18SetAudioSampleRateENS_9SaiHandle6Config10SampleRateE
_ZN5daisy8DaisyPod8StartAdcEv
_ZN5daisy8DaisyPod10StartAudioEPFvPKPKfPPfjE
_ZN5daisy6RgbLed8SetColorENS_5ColorE
_ZN5daisy8DaisyPod10UpdateLedsEv
_ZN10Controller10printParamEv
_ZN5daisy8DaisyPod21ProcessAnalogControlsEv
_ZN5daisy8DaisyPod22ProcessDigitalControlsEv
_ZN10Controller6adjustEs
_ZN5daisy8DaisyPod9ClearLedsEv
_ZN10Controller8getParamEv
_ZN10Controller9setBypassEb
_ZN10Controller8incParamEv
